; ModuleID = 'C:/Vitis_Libraries/quantitative_finance/L1/tests/pca/Principal_Component_Analysis.prj/sol/.autopilot/db/a.g.ld.5.gdce.bc'
source_filename = "llvm-link"
target datalayout = "e-m:e-i64:64-i128:128-i256:256-i512:512-i1024:1024-i2048:2048-i4096:4096-n8:16:32:64-S128-v16:16-v24:32-v32:32-v48:64-v96:128-v192:256-v256:256-v512:512-v1024:1024"
target triple = "fpga64-xilinx-none"

; Function Attrs: inaccessiblememonly nounwind willreturn
declare void @llvm.sideeffect() #0

; Function Attrs: noinline
define void @apatb_dut_ir(i32 %rows, i32 %cols, [80 x double]* noalias nocapture nonnull "fpga.decayed.dim.hint"="15" %input, [3 x double]* noalias nocapture nonnull "fpga.decayed.dim.hint"="15" "partition" %outputLoadings) local_unnamed_addr #1 {
entry:
  %malloccall = tail call i8* @malloc(i64 9600)
  %input_copy = bitcast i8* %malloccall to [15 x [80 x double]]*
  %outputLoadings_copy_0 = alloca [15 x double], align 512
  %outputLoadings_copy_1 = alloca [15 x double], align 512
  %outputLoadings_copy_2 = alloca [15 x double], align 512
  %0 = bitcast [80 x double]* %input to [15 x [80 x double]]*
  %1 = bitcast [3 x double]* %outputLoadings to [15 x [3 x double]]*
  call void @copy_in([15 x [80 x double]]* nonnull %0, [15 x [80 x double]]* %input_copy, [15 x [3 x double]]* nonnull %1, [15 x double]* nonnull align 512 %outputLoadings_copy_0, [15 x double]* nonnull align 512 %outputLoadings_copy_1, [15 x double]* nonnull align 512 %outputLoadings_copy_2)
  %_0 = getelementptr [15 x double], [15 x double]* %outputLoadings_copy_0, i64 0, i64 0
  %_1 = getelementptr [15 x double], [15 x double]* %outputLoadings_copy_1, i64 0, i64 0
  %_2 = getelementptr [15 x double], [15 x double]* %outputLoadings_copy_2, i64 0, i64 0
  call void @llvm.sideeffect() #8 [ "xlx_array_partition"(double* %_0, i32 998, i32 1, i32 0, i1 false) ], !dbg !14
  call void @llvm.sideeffect() #8 [ "xlx_array_partition"(double* %_1, i32 998, i32 1, i32 0, i1 false) ], !dbg !14
  call void @llvm.sideeffect() #8 [ "xlx_array_partition"(double* %_2, i32 998, i32 1, i32 0, i1 false) ], !dbg !14
  call void @apatb_dut_hw(i32 %rows, i32 %cols, [15 x [80 x double]]* %input_copy, [15 x double]* %outputLoadings_copy_0, [15 x double]* %outputLoadings_copy_1, [15 x double]* %outputLoadings_copy_2)
  call void @copy_back([15 x [80 x double]]* %0, [15 x [80 x double]]* %input_copy, [15 x [3 x double]]* %1, [15 x double]* %outputLoadings_copy_0, [15 x double]* %outputLoadings_copy_1, [15 x double]* %outputLoadings_copy_2)
  tail call void @free(i8* %malloccall)
  ret void
}

declare noalias i8* @malloc(i64) local_unnamed_addr

; Function Attrs: argmemonly noinline norecurse willreturn
define internal fastcc void @onebyonecpy_hls.p0a15a80f64([15 x [80 x double]]* noalias %dst, [15 x [80 x double]]* noalias readonly %src) unnamed_addr #2 {
entry:
  %0 = icmp eq [15 x [80 x double]]* %dst, null
  %1 = icmp eq [15 x [80 x double]]* %src, null
  %2 = or i1 %0, %1
  br i1 %2, label %ret, label %copy

copy:                                             ; preds = %entry
  call void @arraycpy_hls.p0a15a80f64([15 x [80 x double]]* nonnull %dst, [15 x [80 x double]]* nonnull %src, i64 15)
  br label %ret

ret:                                              ; preds = %copy, %entry
  ret void
}

; Function Attrs: argmemonly noinline norecurse willreturn
define void @arraycpy_hls.p0a15a80f64([15 x [80 x double]]* %dst, [15 x [80 x double]]* readonly %src, i64 %num) local_unnamed_addr #3 {
entry:
  %0 = icmp eq [15 x [80 x double]]* %src, null
  %1 = icmp eq [15 x [80 x double]]* %dst, null
  %2 = or i1 %1, %0
  br i1 %2, label %ret, label %copy

copy:                                             ; preds = %entry
  %for.loop.cond1 = icmp sgt i64 %num, 0
  br i1 %for.loop.cond1, label %for.loop.lr.ph, label %copy.split

for.loop.lr.ph:                                   ; preds = %copy
  br label %for.loop

for.loop:                                         ; preds = %for.loop, %for.loop.lr.ph
  %for.loop.idx2 = phi i64 [ 0, %for.loop.lr.ph ], [ %for.loop.idx.next, %for.loop ]
  %dst.addr = getelementptr [15 x [80 x double]], [15 x [80 x double]]* %dst, i64 0, i64 %for.loop.idx2
  %src.addr = getelementptr [15 x [80 x double]], [15 x [80 x double]]* %src, i64 0, i64 %for.loop.idx2
  call void @arraycpy_hls.p0a80f64([80 x double]* %dst.addr, [80 x double]* %src.addr, i64 80)
  %for.loop.idx.next = add nuw nsw i64 %for.loop.idx2, 1
  %exitcond = icmp ne i64 %for.loop.idx.next, %num
  br i1 %exitcond, label %for.loop, label %copy.split

copy.split:                                       ; preds = %for.loop, %copy
  br label %ret

ret:                                              ; preds = %copy.split, %entry
  ret void
}

; Function Attrs: argmemonly noinline norecurse willreturn
define void @arraycpy_hls.p0a80f64([80 x double]* %dst, [80 x double]* readonly %src, i64 %num) local_unnamed_addr #3 {
entry:
  %0 = icmp eq [80 x double]* %src, null
  %1 = icmp eq [80 x double]* %dst, null
  %2 = or i1 %1, %0
  br i1 %2, label %ret, label %copy

copy:                                             ; preds = %entry
  %for.loop.cond1 = icmp sgt i64 %num, 0
  br i1 %for.loop.cond1, label %for.loop.lr.ph, label %copy.split

for.loop.lr.ph:                                   ; preds = %copy
  br label %for.loop

for.loop:                                         ; preds = %for.loop, %for.loop.lr.ph
  %for.loop.idx2 = phi i64 [ 0, %for.loop.lr.ph ], [ %for.loop.idx.next, %for.loop ]
  %dst.addr = getelementptr [80 x double], [80 x double]* %dst, i64 0, i64 %for.loop.idx2
  %src.addr = getelementptr [80 x double], [80 x double]* %src, i64 0, i64 %for.loop.idx2
  %3 = load double, double* %src.addr, align 8
  store double %3, double* %dst.addr, align 8
  %for.loop.idx.next = add nuw nsw i64 %for.loop.idx2, 1
  %exitcond = icmp ne i64 %for.loop.idx.next, %num
  br i1 %exitcond, label %for.loop, label %copy.split

copy.split:                                       ; preds = %for.loop, %copy
  br label %ret

ret:                                              ; preds = %copy.split, %entry
  ret void
}

; Function Attrs: argmemonly noinline norecurse willreturn
define void @arraycpy_hls.p0a15a3f64([15 x [3 x double]]* "orig.arg.no"="0" %dst, [15 x [3 x double]]* readonly "orig.arg.no"="1" %src, i64 "orig.arg.no"="2" %num) local_unnamed_addr #3 {
entry:
  %0 = icmp eq [15 x [3 x double]]* %src, null
  %1 = icmp eq [15 x [3 x double]]* %dst, null
  %2 = or i1 %1, %0
  br i1 %2, label %ret, label %copy

copy:                                             ; preds = %entry
  %for.loop.cond1 = icmp sgt i64 %num, 0
  br i1 %for.loop.cond1, label %for.loop.lr.ph, label %copy.split

for.loop.lr.ph:                                   ; preds = %copy
  br label %for.loop

for.loop:                                         ; preds = %for.loop, %for.loop.lr.ph
  %for.loop.idx2 = phi i64 [ 0, %for.loop.lr.ph ], [ %for.loop.idx.next, %for.loop ]
  %dst.addr = getelementptr [15 x [3 x double]], [15 x [3 x double]]* %dst, i64 0, i64 %for.loop.idx2
  %src.addr = getelementptr [15 x [3 x double]], [15 x [3 x double]]* %src, i64 0, i64 %for.loop.idx2
  call void @arraycpy_hls.p0a3f64([3 x double]* %dst.addr, [3 x double]* %src.addr, i64 3)
  %for.loop.idx.next = add nuw nsw i64 %for.loop.idx2, 1
  %exitcond = icmp ne i64 %for.loop.idx.next, %num
  br i1 %exitcond, label %for.loop, label %copy.split

copy.split:                                       ; preds = %for.loop, %copy
  br label %ret

ret:                                              ; preds = %copy.split, %entry
  ret void
}

; Function Attrs: argmemonly noinline norecurse willreturn
define void @arraycpy_hls.p0a3f64([3 x double]* "orig.arg.no"="0" %dst, [3 x double]* readonly "orig.arg.no"="1" %src, i64 "orig.arg.no"="2" %num) local_unnamed_addr #3 {
entry:
  %0 = icmp eq [3 x double]* %src, null
  %1 = icmp eq [3 x double]* %dst, null
  %2 = or i1 %1, %0
  br i1 %2, label %ret, label %copy

copy:                                             ; preds = %entry
  %for.loop.cond1 = icmp sgt i64 %num, 0
  br i1 %for.loop.cond1, label %for.loop.lr.ph, label %copy.split

for.loop.lr.ph:                                   ; preds = %copy
  br label %for.loop

for.loop:                                         ; preds = %for.loop, %for.loop.lr.ph
  %for.loop.idx2 = phi i64 [ 0, %for.loop.lr.ph ], [ %for.loop.idx.next, %for.loop ]
  %dst.addr = getelementptr [3 x double], [3 x double]* %dst, i64 0, i64 %for.loop.idx2
  %src.addr = getelementptr [3 x double], [3 x double]* %src, i64 0, i64 %for.loop.idx2
  %3 = load double, double* %src.addr, align 8
  store double %3, double* %dst.addr, align 8
  %for.loop.idx.next = add nuw nsw i64 %for.loop.idx2, 1
  %exitcond = icmp ne i64 %for.loop.idx.next, %num
  br i1 %exitcond, label %for.loop, label %copy.split

copy.split:                                       ; preds = %for.loop, %copy
  br label %ret

ret:                                              ; preds = %copy.split, %entry
  ret void
}

declare void @free(i8*) local_unnamed_addr

; Function Attrs: nounwind willreturn
declare void @llvm.assume(i1) #4

; Function Attrs: argmemonly noinline norecurse willreturn
define void @arraycpy_hls.p0a3f64.62.63(double* "orig.arg.no"="0" "unpacked"="0.0" %dst_0, double* "orig.arg.no"="0" "unpacked"="0.1" %dst_1, double* "orig.arg.no"="0" "unpacked"="0.2" %dst_2, [3 x double]* readonly "orig.arg.no"="1" %src, i64 "orig.arg.no"="2" %num) #3 {
entry:
  %0 = icmp eq [3 x double]* %src, null
  %1 = icmp eq double* %dst_0, null
  %2 = or i1 %1, %0
  br i1 %2, label %ret, label %copy

copy:                                             ; preds = %entry
  %for.loop.cond1 = icmp sgt i64 %num, 0
  br i1 %for.loop.cond1, label %for.loop.lr.ph, label %copy.split

for.loop.lr.ph:                                   ; preds = %copy
  br label %for.loop

for.loop:                                         ; preds = %dst.addr.exit, %for.loop.lr.ph
  %for.loop.idx2 = phi i64 [ 0, %for.loop.lr.ph ], [ %for.loop.idx.next, %dst.addr.exit ]
  %3 = trunc i64 %for.loop.idx2 to i2
  %src.addr = getelementptr [3 x double], [3 x double]* %src, i64 0, i64 %for.loop.idx2
  %4 = load double, double* %src.addr, align 8
  switch i2 %3, label %dst.addr.case.2 [
    i2 0, label %dst.addr.case.0
    i2 1, label %dst.addr.case.1
  ]

dst.addr.case.0:                                  ; preds = %for.loop
  store double %4, double* %dst_0, align 8
  br label %dst.addr.exit

dst.addr.case.1:                                  ; preds = %for.loop
  store double %4, double* %dst_1, align 8
  br label %dst.addr.exit

dst.addr.case.2:                                  ; preds = %for.loop
  %5 = icmp eq i2 %3, -2
  call void @llvm.assume(i1 %5)
  store double %4, double* %dst_2, align 8
  br label %dst.addr.exit

dst.addr.exit:                                    ; preds = %dst.addr.case.2, %dst.addr.case.1, %dst.addr.case.0
  %for.loop.idx.next = add nuw nsw i64 %for.loop.idx2, 1
  %exitcond = icmp ne i64 %for.loop.idx.next, %num
  br i1 %exitcond, label %for.loop, label %copy.split

copy.split:                                       ; preds = %dst.addr.exit, %copy
  br label %ret

ret:                                              ; preds = %copy.split, %entry
  ret void
}

; Function Attrs: argmemonly noinline norecurse willreturn
define void @arraycpy_hls.p0a15a3f64.61.64([15 x double]* "orig.arg.no"="0" "unpacked"="0.0" %dst_0, [15 x double]* "orig.arg.no"="0" "unpacked"="0.1" %dst_1, [15 x double]* "orig.arg.no"="0" "unpacked"="0.2" %dst_2, [15 x [3 x double]]* readonly "orig.arg.no"="1" %src, i64 "orig.arg.no"="2" %num) #3 {
entry:
  %0 = icmp eq [15 x [3 x double]]* %src, null
  %1 = icmp eq [15 x double]* %dst_0, null
  %2 = or i1 %1, %0
  br i1 %2, label %ret, label %copy

copy:                                             ; preds = %entry
  %for.loop.cond1 = icmp sgt i64 %num, 0
  br i1 %for.loop.cond1, label %for.loop.lr.ph, label %copy.split

for.loop.lr.ph:                                   ; preds = %copy
  br label %for.loop

for.loop:                                         ; preds = %for.loop, %for.loop.lr.ph
  %for.loop.idx2 = phi i64 [ 0, %for.loop.lr.ph ], [ %for.loop.idx.next, %for.loop ]
  %dst.addr_0 = getelementptr [15 x double], [15 x double]* %dst_0, i64 0, i64 %for.loop.idx2
  %dst.addr_1 = getelementptr [15 x double], [15 x double]* %dst_1, i64 0, i64 %for.loop.idx2
  %dst.addr_2 = getelementptr [15 x double], [15 x double]* %dst_2, i64 0, i64 %for.loop.idx2
  %src.addr = getelementptr [15 x [3 x double]], [15 x [3 x double]]* %src, i64 0, i64 %for.loop.idx2
  call void @arraycpy_hls.p0a3f64.62.63(double* %dst.addr_0, double* %dst.addr_1, double* %dst.addr_2, [3 x double]* %src.addr, i64 3)
  %for.loop.idx.next = add nuw nsw i64 %for.loop.idx2, 1
  %exitcond = icmp ne i64 %for.loop.idx.next, %num
  br i1 %exitcond, label %for.loop, label %copy.split

copy.split:                                       ; preds = %for.loop, %copy
  br label %ret

ret:                                              ; preds = %copy.split, %entry
  ret void
}

; Function Attrs: argmemonly noinline norecurse willreturn
define internal void @onebyonecpy_hls.p0a15a3f64.60.65([15 x double]* noalias align 512 "orig.arg.no"="0" "unpacked"="0.0" %dst_0, [15 x double]* noalias align 512 "orig.arg.no"="0" "unpacked"="0.1" %dst_1, [15 x double]* noalias align 512 "orig.arg.no"="0" "unpacked"="0.2" %dst_2, [15 x [3 x double]]* noalias readonly "orig.arg.no"="1" %src) #2 {
entry:
  %0 = icmp eq [15 x double]* %dst_0, null
  %1 = icmp eq [15 x [3 x double]]* %src, null
  %2 = or i1 %0, %1
  br i1 %2, label %ret, label %copy

copy:                                             ; preds = %entry
  call void @arraycpy_hls.p0a15a3f64.61.64([15 x double]* nonnull %dst_0, [15 x double]* %dst_1, [15 x double]* %dst_2, [15 x [3 x double]]* nonnull %src, i64 15)
  br label %ret

ret:                                              ; preds = %copy, %entry
  ret void
}

; Function Attrs: argmemonly noinline norecurse willreturn
define internal void @copy_in([15 x [80 x double]]* noalias readonly "orig.arg.no"="0", [15 x [80 x double]]* noalias "orig.arg.no"="1", [15 x [3 x double]]* noalias readonly "orig.arg.no"="2", [15 x double]* noalias align 512 "orig.arg.no"="3" "unpacked"="3.0" %_0, [15 x double]* noalias align 512 "orig.arg.no"="3" "unpacked"="3.1" %_1, [15 x double]* noalias align 512 "orig.arg.no"="3" "unpacked"="3.2" %_2) #5 {
entry:
  call fastcc void @onebyonecpy_hls.p0a15a80f64([15 x [80 x double]]* %1, [15 x [80 x double]]* %0)
  call void @onebyonecpy_hls.p0a15a3f64.60.65([15 x double]* align 512 %_0, [15 x double]* align 512 %_1, [15 x double]* align 512 %_2, [15 x [3 x double]]* %2)
  ret void
}

; Function Attrs: argmemonly noinline norecurse willreturn
define void @arraycpy_hls.p0a3f64.72.73([3 x double]* "orig.arg.no"="0" %dst, double* readonly "orig.arg.no"="1" "unpacked"="1.0" %src_0, double* readonly "orig.arg.no"="1" "unpacked"="1.1" %src_1, double* readonly "orig.arg.no"="1" "unpacked"="1.2" %src_2, i64 "orig.arg.no"="2" %num) #3 {
entry:
  %0 = icmp eq double* %src_0, null
  %1 = icmp eq [3 x double]* %dst, null
  %2 = or i1 %1, %0
  br i1 %2, label %ret, label %copy

copy:                                             ; preds = %entry
  %for.loop.cond1 = icmp sgt i64 %num, 0
  br i1 %for.loop.cond1, label %for.loop.lr.ph, label %copy.split

for.loop.lr.ph:                                   ; preds = %copy
  br label %for.loop

for.loop:                                         ; preds = %src.addr.exit, %for.loop.lr.ph
  %for.loop.idx2 = phi i64 [ 0, %for.loop.lr.ph ], [ %for.loop.idx.next, %src.addr.exit ]
  %3 = trunc i64 %for.loop.idx2 to i2
  %dst.addr = getelementptr [3 x double], [3 x double]* %dst, i64 0, i64 %for.loop.idx2
  switch i2 %3, label %src.addr.case.2 [
    i2 0, label %src.addr.case.0
    i2 1, label %src.addr.case.1
  ]

src.addr.case.0:                                  ; preds = %for.loop
  %_0 = load double, double* %src_0, align 8
  br label %src.addr.exit

src.addr.case.1:                                  ; preds = %for.loop
  %_1 = load double, double* %src_1, align 8
  br label %src.addr.exit

src.addr.case.2:                                  ; preds = %for.loop
  %4 = icmp eq i2 %3, -2
  call void @llvm.assume(i1 %4)
  %_2 = load double, double* %src_2, align 8
  br label %src.addr.exit

src.addr.exit:                                    ; preds = %src.addr.case.2, %src.addr.case.1, %src.addr.case.0
  %5 = phi double [ %_0, %src.addr.case.0 ], [ %_1, %src.addr.case.1 ], [ %_2, %src.addr.case.2 ]
  store double %5, double* %dst.addr, align 8
  %for.loop.idx.next = add nuw nsw i64 %for.loop.idx2, 1
  %exitcond = icmp ne i64 %for.loop.idx.next, %num
  br i1 %exitcond, label %for.loop, label %copy.split

copy.split:                                       ; preds = %src.addr.exit, %copy
  br label %ret

ret:                                              ; preds = %copy.split, %entry
  ret void
}

; Function Attrs: argmemonly noinline norecurse willreturn
define void @arraycpy_hls.p0a15a3f64.71.74([15 x [3 x double]]* "orig.arg.no"="0" %dst, [15 x double]* readonly "orig.arg.no"="1" "unpacked"="1.0" %src_0, [15 x double]* readonly "orig.arg.no"="1" "unpacked"="1.1" %src_1, [15 x double]* readonly "orig.arg.no"="1" "unpacked"="1.2" %src_2, i64 "orig.arg.no"="2" %num) #3 {
entry:
  %0 = icmp eq [15 x double]* %src_0, null
  %1 = icmp eq [15 x [3 x double]]* %dst, null
  %2 = or i1 %1, %0
  br i1 %2, label %ret, label %copy

copy:                                             ; preds = %entry
  %for.loop.cond1 = icmp sgt i64 %num, 0
  br i1 %for.loop.cond1, label %for.loop.lr.ph, label %copy.split

for.loop.lr.ph:                                   ; preds = %copy
  br label %for.loop

for.loop:                                         ; preds = %for.loop, %for.loop.lr.ph
  %for.loop.idx2 = phi i64 [ 0, %for.loop.lr.ph ], [ %for.loop.idx.next, %for.loop ]
  %dst.addr = getelementptr [15 x [3 x double]], [15 x [3 x double]]* %dst, i64 0, i64 %for.loop.idx2
  %src.addr_0 = getelementptr [15 x double], [15 x double]* %src_0, i64 0, i64 %for.loop.idx2
  %src.addr_1 = getelementptr [15 x double], [15 x double]* %src_1, i64 0, i64 %for.loop.idx2
  %src.addr_2 = getelementptr [15 x double], [15 x double]* %src_2, i64 0, i64 %for.loop.idx2
  call void @arraycpy_hls.p0a3f64.72.73([3 x double]* %dst.addr, double* %src.addr_0, double* %src.addr_1, double* %src.addr_2, i64 3)
  %for.loop.idx.next = add nuw nsw i64 %for.loop.idx2, 1
  %exitcond = icmp ne i64 %for.loop.idx.next, %num
  br i1 %exitcond, label %for.loop, label %copy.split

copy.split:                                       ; preds = %for.loop, %copy
  br label %ret

ret:                                              ; preds = %copy.split, %entry
  ret void
}

; Function Attrs: argmemonly noinline norecurse willreturn
define internal void @onebyonecpy_hls.p0a15a3f64.70.75([15 x [3 x double]]* noalias "orig.arg.no"="0" %dst, [15 x double]* noalias readonly align 512 "orig.arg.no"="1" "unpacked"="1.0" %src_0, [15 x double]* noalias readonly align 512 "orig.arg.no"="1" "unpacked"="1.1" %src_1, [15 x double]* noalias readonly align 512 "orig.arg.no"="1" "unpacked"="1.2" %src_2) #2 {
entry:
  %0 = icmp eq [15 x [3 x double]]* %dst, null
  %1 = icmp eq [15 x double]* %src_0, null
  %2 = or i1 %0, %1
  br i1 %2, label %ret, label %copy

copy:                                             ; preds = %entry
  call void @arraycpy_hls.p0a15a3f64.71.74([15 x [3 x double]]* nonnull %dst, [15 x double]* nonnull %src_0, [15 x double]* %src_1, [15 x double]* %src_2, i64 15)
  br label %ret

ret:                                              ; preds = %copy, %entry
  ret void
}

; Function Attrs: argmemonly noinline norecurse willreturn
define internal void @copy_out([15 x [80 x double]]* noalias "orig.arg.no"="0", [15 x [80 x double]]* noalias readonly "orig.arg.no"="1", [15 x [3 x double]]* noalias "orig.arg.no"="2", [15 x double]* noalias readonly align 512 "orig.arg.no"="3" "unpacked"="3.0" %_0, [15 x double]* noalias readonly align 512 "orig.arg.no"="3" "unpacked"="3.1" %_1, [15 x double]* noalias readonly align 512 "orig.arg.no"="3" "unpacked"="3.2" %_2) #6 {
entry:
  call fastcc void @onebyonecpy_hls.p0a15a80f64([15 x [80 x double]]* %0, [15 x [80 x double]]* %1)
  call void @onebyonecpy_hls.p0a15a3f64.70.75([15 x [3 x double]]* %2, [15 x double]* align 512 %_0, [15 x double]* align 512 %_1, [15 x double]* align 512 %_2)
  ret void
}

declare void @apatb_dut_hw(i32, i32, [15 x [80 x double]]*, [15 x double]*, [15 x double]*, [15 x double]*)

; Function Attrs: argmemonly noinline norecurse willreturn
define internal void @copy_back([15 x [80 x double]]* noalias "orig.arg.no"="0", [15 x [80 x double]]* noalias readonly "orig.arg.no"="1", [15 x [3 x double]]* noalias "orig.arg.no"="2", [15 x double]* noalias readonly align 512 "orig.arg.no"="3" "unpacked"="3.0" %_0, [15 x double]* noalias readonly align 512 "orig.arg.no"="3" "unpacked"="3.1" %_1, [15 x double]* noalias readonly align 512 "orig.arg.no"="3" "unpacked"="3.2" %_2) #6 {
entry:
  call fastcc void @onebyonecpy_hls.p0a15a80f64([15 x [80 x double]]* %0, [15 x [80 x double]]* %1)
  call void @onebyonecpy_hls.p0a15a3f64.70.75([15 x [3 x double]]* %2, [15 x double]* align 512 %_0, [15 x double]* align 512 %_1, [15 x double]* align 512 %_2)
  ret void
}

define void @dut_hw_stub_wrapper(i32, i32, [15 x [80 x double]]*, [15 x double]*, [15 x double]*, [15 x double]*) #7 {
entry:
  %6 = alloca [15 x [3 x double]]
  call void @copy_out([15 x [80 x double]]* null, [15 x [80 x double]]* %2, [15 x [3 x double]]* %6, [15 x double]* %3, [15 x double]* %4, [15 x double]* %5)
  %7 = bitcast [15 x [80 x double]]* %2 to [80 x double]*
  %8 = bitcast [15 x [3 x double]]* %6 to [3 x double]*
  call void @dut_hw_stub(i32 %0, i32 %1, [80 x double]* %7, [3 x double]* %8)
  call void @copy_in([15 x [80 x double]]* null, [15 x [80 x double]]* %2, [15 x [3 x double]]* %6, [15 x double]* %3, [15 x double]* %4, [15 x double]* %5)
  ret void
}

declare void @dut_hw_stub(i32, i32, [80 x double]*, [3 x double]*)

attributes #0 = { inaccessiblememonly nounwind willreturn }
attributes #1 = { noinline "fpga.wrapper.func"="wrapper" }
attributes #2 = { argmemonly noinline norecurse willreturn "fpga.wrapper.func"="onebyonecpy_hls" }
attributes #3 = { argmemonly noinline norecurse willreturn "fpga.wrapper.func"="arraycpy_hls" }
attributes #4 = { nounwind willreturn }
attributes #5 = { argmemonly noinline norecurse willreturn "fpga.wrapper.func"="copyin" }
attributes #6 = { argmemonly noinline norecurse willreturn "fpga.wrapper.func"="copyout" }
attributes #7 = { "fpga.wrapper.func"="stub" }
attributes #8 = { inaccessiblememonly nounwind willreturn "xlx.source"="infer-from-pragma" }

!llvm.dbg.cu = !{}
!llvm.ident = !{!0, !0, !0, !0, !0, !0, !0, !0, !0, !0, !0, !0, !0, !0, !0, !0, !0, !0, !0, !0, !0, !0, !0, !0, !0, !0, !0, !0, !0, !0, !0, !0, !0, !0, !0, !0, !0, !0, !0, !0, !0, !0, !0, !0, !0, !0, !0, !0, !0, !0, !0, !0, !0, !0, !0, !0, !0, !0, !0, !0, !0, !0, !0, !0, !0, !0, !0, !0, !0, !0, !0, !0, !0, !0, !0, !0, !0, !0, !0, !0, !0, !0, !0, !0, !0, !0, !0, !0, !0, !0, !0, !0, !0, !0, !0, !0, !0, !0, !0, !0, !0, !0, !0, !0, !0, !0, !0, !0, !0, !0, !0, !0, !0, !0, !0, !0, !0, !0, !0, !0, !0, !0, !0, !0, !0, !0, !0, !0, !0, !0, !0, !0, !0, !0, !0, !0, !0, !0, !0, !0, !0, !0, !0, !0, !0, !0, !0, !0, !0, !0, !0, !0, !0, !0, !0, !0, !0, !0, !0, !0, !0, !0, !0, !0, !0, !0, !0, !0, !0, !0, !0, !0, !0, !0, !0, !0, !0, !0, !0, !0, !0, !0, !0, !0, !0, !0, !0, !0, !0, !0, !0, !0, !0, !0, !0, !0, !0, !0, !0, !0, !0, !0, !0, !0, !0, !0, !0, !0, !0, !0, !0, !0, !0, !0, !0, !0, !0, !0, !0, !0, !0, !0, !0, !0, !0, !0, !0, !0, !0, !0, !0, !0, !0, !0, !0, !0, !0, !0, !0, !0, !0, !0, !0, !0, !0, !0, !0, !0, !0, !0, !0, !0, !0, !0, !0, !0, !0, !0, !0, !0, !0, !0, !0, !0, !0, !0, !0, !0, !0, !0, !0, !0, !0, !0, !0, !0, !0, !0, !0, !0, !0, !0, !0, !0, !0, !0, !0, !0, !0, !0, !0, !0, !0, !0, !0, !0, !0, !0, !0, !0, !0, !0, !0, !0, !0, !0, !0, !0, !0, !0, !0, !0, !0, !0, !0, !0, !0, !0, !0, !0, !0, !0, !0, !0, !0, !0, !0, !0, !0, !0, !0, !0, !0, !0, !0, !0, !0, !0, !0, !0, !0, !0, !0, !0, !0, !0, !0, !0, !0, !0, !0, !0, !0, !0, !0, !0, !0, !0, !0, !0, !0, !0, !0, !0, !0, !0, !0, !0, !0, !0, !0, !0, !0, !0, !0, !0, !0, !0, !0, !0, !0, !0, !0, !0, !0, !0, !0, !0, !0, !0, !0, !0, !0, !0, !0, !0, !0, !0, !0, !0, !0, !0, !0, !0, !0, !0, !0, !0, !0, !0, !0, !0, !0, !0, !0, !0, !0, !0, !0, !0, !0, !0, !0, !0, !0, !0, !0, !0, !0, !0, !0, !0, !0, !0, !0, !0, !0, !0, !0, !0, !0, !0, !0, !0, !0, !0, !0, !0, !0, !0, !0, !0, !0, !0, !0, !0, !0, !0, !0, !0, !0, !0, !0, !0, !0, !0, !0, !0, !0, !0, !0, !0, !0, !0, !0, !0, !0, !0, !0, !0, !0, !0, !0, !0, !0, !0, !0, !0, !0, !0, !0, !0, !0, !0, !0, !0, !0, !0, !0, !0, !0, !0, !0, !0, !0, !0, !0, !0, !0, !0, !0, !0, !0, !0, !0, !0, !0, !0, !0, !0, !0, !0, !0, !0, !0, !0, !0, !0, !0, !0, !0, !0, !0, !0, !0, !0, !0, !0, !0, !0, !0, !0, !0, !0, !0, !0, !0, !0, !0, !0, !0, !0, !0, !0, !0, !0, !0, !0, !0, !0, !0, !0, !0, !0, !0, !0, !0, !0, !0, !0, !0, !0, !0, !0, !0, !0, !0, !0, !0, !0, !0, !0, !0, !0, !0}
!llvm.module.flags = !{!1, !2, !3}
!blackbox_cfg = !{!4}
!datalayout.transforms.on.top = !{!5}

!0 = !{!"clang version 7.0.0 "}
!1 = !{i32 2, !"Dwarf Version", i32 4}
!2 = !{i32 2, !"Debug Info Version", i32 3}
!3 = !{i32 1, !"wchar_size", i32 4}
!4 = !{}
!5 = !{!6, !8, !10}
!6 = !{!7}
!7 = !{!"3", [15 x [3 x double]]* null}
!8 = !{!9}
!9 = !{!"array_partition", !"type=Complete", !"dim=2"}
!10 = !{!11, !12, !13}
!11 = !{!"3.0", [15 x double]* null}
!12 = !{!"3.1", [15 x double]* null}
!13 = !{!"3.2", [15 x double]* null}
!14 = !DILocation(line: 35, column: 9, scope: !15)
!15 = distinct !DISubprogram(name: "dut", scope: !16, file: !16, line: 31, type: !17, isLocal: false, isDefinition: true, scopeLine: 34, flags: DIFlagPrototyped, isOptimized: false, unit: !29, variables: !4)
!16 = !DIFile(filename: "dut.cpp", directory: "C:\5CVitis_Libraries\5Cquantitative_finance\5CL1\5Ctests\5Cpca")
!17 = !DISubroutineType(types: !18)
!18 = !{null, !19, !19, !20, !25}
!19 = !DIBasicType(name: "unsigned int", size: 32, encoding: DW_ATE_unsigned)
!20 = !DIDerivedType(tag: DW_TAG_pointer_type, baseType: !21, size: 64)
!21 = !DICompositeType(tag: DW_TAG_array_type, baseType: !22, size: 5120, elements: !23)
!22 = !DIBasicType(name: "double", size: 64, encoding: DW_ATE_float)
!23 = !{!24}
!24 = !DISubrange(count: 80)
!25 = !DIDerivedType(tag: DW_TAG_pointer_type, baseType: !26, size: 64)
!26 = !DICompositeType(tag: DW_TAG_array_type, baseType: !22, size: 192, elements: !27)
!27 = !{!28}
!28 = !DISubrange(count: 3)
!29 = distinct !DICompileUnit(language: DW_LANG_C_plus_plus, file: !30, producer: "clang version 7.0.0 ", isOptimized: true, runtimeVersion: 0, emissionKind: FullDebug, enums: !31, retainedTypes: !1103, globals: !1258, imports: !1271)
!30 = !DIFile(filename: "C:/Vitis_Libraries/quantitative_finance/L1/tests/pca/Principal_Component_Analysis.prj/sol/.autopilot/db\5Cdut.pp.0.cpp", directory: "C:\5CVitis_Libraries\5Cquantitative_finance\5CL1\5Ctests\5Cpca")
!31 = !{!32, !57, !66, !77, !83, !1083, !1090, !1096}
!32 = distinct !DICompositeType(tag: DW_TAG_enumeration_type, name: "_Ios_Fmtflags", scope: !34, file: !33, line: 57, size: 32, elements: !35, identifier: "_ZTSSt13_Ios_Fmtflags")
!33 = !DIFile(filename: "C:/Xilinx/Vitis_HLS/2023.2/tps/mingw/8.3.0/win64.o/nt\5Clib\5Cgcc\5Cx86_64-w64-mingw32\5C8.3.0\5Cinclude\5Cc++\5Cbits/ios_base.h", directory: "C:\5CVitis_Libraries\5Cquantitative_finance\5CL1\5Ctests\5Cpca")
!34 = !DINamespace(name: "std", scope: null)
!35 = !{!36, !37, !38, !39, !40, !41, !42, !43, !44, !45, !46, !47, !48, !49, !50, !51, !52, !53, !54, !55, !56}
!36 = !DIEnumerator(name: "_S_boolalpha", value: 1)
!37 = !DIEnumerator(name: "_S_dec", value: 2)
!38 = !DIEnumerator(name: "_S_fixed", value: 4)
!39 = !DIEnumerator(name: "_S_hex", value: 8)
!40 = !DIEnumerator(name: "_S_internal", value: 16)
!41 = !DIEnumerator(name: "_S_left", value: 32)
!42 = !DIEnumerator(name: "_S_oct", value: 64)
!43 = !DIEnumerator(name: "_S_right", value: 128)
!44 = !DIEnumerator(name: "_S_scientific", value: 256)
!45 = !DIEnumerator(name: "_S_showbase", value: 512)
!46 = !DIEnumerator(name: "_S_showpoint", value: 1024)
!47 = !DIEnumerator(name: "_S_showpos", value: 2048)
!48 = !DIEnumerator(name: "_S_skipws", value: 4096)
!49 = !DIEnumerator(name: "_S_unitbuf", value: 8192)
!50 = !DIEnumerator(name: "_S_uppercase", value: 16384)
!51 = !DIEnumerator(name: "_S_adjustfield", value: 176)
!52 = !DIEnumerator(name: "_S_basefield", value: 74)
!53 = !DIEnumerator(name: "_S_floatfield", value: 260)
!54 = !DIEnumerator(name: "_S_ios_fmtflags_end", value: 65536)
!55 = !DIEnumerator(name: "_S_ios_fmtflags_max", value: 2147483647)
!56 = !DIEnumerator(name: "_S_ios_fmtflags_min", value: -2147483648)
!57 = distinct !DICompositeType(tag: DW_TAG_enumeration_type, name: "_Ios_Iostate", scope: !34, file: !33, line: 153, size: 32, elements: !58, identifier: "_ZTSSt12_Ios_Iostate")
!58 = !{!59, !60, !61, !62, !63, !64, !65}
!59 = !DIEnumerator(name: "_S_goodbit", value: 0)
!60 = !DIEnumerator(name: "_S_badbit", value: 1)
!61 = !DIEnumerator(name: "_S_eofbit", value: 2)
!62 = !DIEnumerator(name: "_S_failbit", value: 4)
!63 = !DIEnumerator(name: "_S_ios_iostate_end", value: 65536)
!64 = !DIEnumerator(name: "_S_ios_iostate_max", value: 2147483647)
!65 = !DIEnumerator(name: "_S_ios_iostate_min", value: -2147483648)
!66 = distinct !DICompositeType(tag: DW_TAG_enumeration_type, name: "_Ios_Openmode", scope: !34, file: !33, line: 111, size: 32, elements: !67, identifier: "_ZTSSt13_Ios_Openmode")
!67 = !{!68, !69, !70, !71, !72, !73, !74, !75, !76}
!68 = !DIEnumerator(name: "_S_app", value: 1)
!69 = !DIEnumerator(name: "_S_ate", value: 2)
!70 = !DIEnumerator(name: "_S_bin", value: 4)
!71 = !DIEnumerator(name: "_S_in", value: 8)
!72 = !DIEnumerator(name: "_S_out", value: 16)
!73 = !DIEnumerator(name: "_S_trunc", value: 32)
!74 = !DIEnumerator(name: "_S_ios_openmode_end", value: 65536)
!75 = !DIEnumerator(name: "_S_ios_openmode_max", value: 2147483647)
!76 = !DIEnumerator(name: "_S_ios_openmode_min", value: -2147483648)
!77 = distinct !DICompositeType(tag: DW_TAG_enumeration_type, name: "_Ios_Seekdir", scope: !34, file: !33, line: 193, size: 32, elements: !78, identifier: "_ZTSSt12_Ios_Seekdir")
!78 = !{!79, !80, !81, !82}
!79 = !DIEnumerator(name: "_S_beg", value: 0)
!80 = !DIEnumerator(name: "_S_cur", value: 1)
!81 = !DIEnumerator(name: "_S_end", value: 2)
!82 = !DIEnumerator(name: "_S_ios_seekdir_end", value: 65536)
!83 = distinct !DICompositeType(tag: DW_TAG_enumeration_type, name: "event", scope: !84, file: !33, line: 489, size: 32, elements: !1079, identifier: "_ZTSNSt8ios_base5eventE")
!84 = distinct !DICompositeType(tag: DW_TAG_class_type, name: "ios_base", scope: !34, file: !33, line: 228, size: 1728, flags: DIFlagTypePassByReference, elements: !85, vtableHolder: !84, identifier: "_ZTSSt8ios_base")
!85 = !{!86, !92, !95, !96, !97, !98, !99, !100, !101, !102, !103, !104, !105, !106, !107, !108, !109, !110, !111, !112, !115, !116, !117, !118, !121, !122, !123, !124, !125, !126, !129, !130, !131, !137, !138, !139, !140, !141, !166, !176, !180, !181, !183, !1007, !1011, !1014, !1017, !1021, !1022, !1027, !1030, !1031, !1034, !1037, !1040, !1043, !1044, !1045, !1048, !1051, !1054, !1057, !1058, !1062, !1066, !1067, !1068, !1072, !1075, !1078}
!86 = !DIDerivedType(tag: DW_TAG_member, name: "_vptr$ios_base", scope: !33, file: !33, baseType: !87, size: 64, flags: DIFlagArtificial)
!87 = !DIDerivedType(tag: DW_TAG_pointer_type, baseType: !88, size: 64)
!88 = !DIDerivedType(tag: DW_TAG_pointer_type, name: "__vtbl_ptr_type", baseType: !89, size: 64)
!89 = !DISubroutineType(types: !90)
!90 = !{!91}
!91 = !DIBasicType(name: "int", size: 32, encoding: DW_ATE_signed)
!92 = !DIDerivedType(tag: DW_TAG_member, name: "boolalpha", scope: !84, file: !33, line: 326, baseType: !93, flags: DIFlagPublic | DIFlagStaticMember, extraData: i32 1)
!93 = !DIDerivedType(tag: DW_TAG_const_type, baseType: !94)
!94 = !DIDerivedType(tag: DW_TAG_typedef, name: "fmtflags", scope: !84, file: !33, line: 323, baseType: !32)
!95 = !DIDerivedType(tag: DW_TAG_member, name: "dec", scope: !84, file: !33, line: 329, baseType: !93, flags: DIFlagPublic | DIFlagStaticMember, extraData: i32 2)
!96 = !DIDerivedType(tag: DW_TAG_member, name: "fixed", scope: !84, file: !33, line: 332, baseType: !93, flags: DIFlagPublic | DIFlagStaticMember, extraData: i32 4)
!97 = !DIDerivedType(tag: DW_TAG_member, name: "hex", scope: !84, file: !33, line: 335, baseType: !93, flags: DIFlagPublic | DIFlagStaticMember, extraData: i32 8)
!98 = !DIDerivedType(tag: DW_TAG_member, name: "internal", scope: !84, file: !33, line: 340, baseType: !93, flags: DIFlagPublic | DIFlagStaticMember, extraData: i32 16)
!99 = !DIDerivedType(tag: DW_TAG_member, name: "left", scope: !84, file: !33, line: 344, baseType: !93, flags: DIFlagPublic | DIFlagStaticMember, extraData: i32 32)
!100 = !DIDerivedType(tag: DW_TAG_member, name: "oct", scope: !84, file: !33, line: 347, baseType: !93, flags: DIFlagPublic | DIFlagStaticMember, extraData: i32 64)
!101 = !DIDerivedType(tag: DW_TAG_member, name: "right", scope: !84, file: !33, line: 351, baseType: !93, flags: DIFlagPublic | DIFlagStaticMember, extraData: i32 128)
!102 = !DIDerivedType(tag: DW_TAG_member, name: "scientific", scope: !84, file: !33, line: 354, baseType: !93, flags: DIFlagPublic | DIFlagStaticMember, extraData: i32 256)
!103 = !DIDerivedType(tag: DW_TAG_member, name: "showbase", scope: !84, file: !33, line: 358, baseType: !93, flags: DIFlagPublic | DIFlagStaticMember, extraData: i32 512)
!104 = !DIDerivedType(tag: DW_TAG_member, name: "showpoint", scope: !84, file: !33, line: 362, baseType: !93, flags: DIFlagPublic | DIFlagStaticMember, extraData: i32 1024)
!105 = !DIDerivedType(tag: DW_TAG_member, name: "showpos", scope: !84, file: !33, line: 365, baseType: !93, flags: DIFlagPublic | DIFlagStaticMember, extraData: i32 2048)
!106 = !DIDerivedType(tag: DW_TAG_member, name: "skipws", scope: !84, file: !33, line: 368, baseType: !93, flags: DIFlagPublic | DIFlagStaticMember, extraData: i32 4096)
!107 = !DIDerivedType(tag: DW_TAG_member, name: "unitbuf", scope: !84, file: !33, line: 371, baseType: !93, flags: DIFlagPublic | DIFlagStaticMember, extraData: i32 8192)
!108 = !DIDerivedType(tag: DW_TAG_member, name: "uppercase", scope: !84, file: !33, line: 375, baseType: !93, flags: DIFlagPublic | DIFlagStaticMember, extraData: i32 16384)
!109 = !DIDerivedType(tag: DW_TAG_member, name: "adjustfield", scope: !84, file: !33, line: 378, baseType: !93, flags: DIFlagPublic | DIFlagStaticMember, extraData: i32 176)
!110 = !DIDerivedType(tag: DW_TAG_member, name: "basefield", scope: !84, file: !33, line: 381, baseType: !93, flags: DIFlagPublic | DIFlagStaticMember, extraData: i32 74)
!111 = !DIDerivedType(tag: DW_TAG_member, name: "floatfield", scope: !84, file: !33, line: 384, baseType: !93, flags: DIFlagPublic | DIFlagStaticMember, extraData: i32 260)
!112 = !DIDerivedType(tag: DW_TAG_member, name: "badbit", scope: !84, file: !33, line: 402, baseType: !113, flags: DIFlagPublic | DIFlagStaticMember, extraData: i32 1)
!113 = !DIDerivedType(tag: DW_TAG_const_type, baseType: !114)
!114 = !DIDerivedType(tag: DW_TAG_typedef, name: "iostate", scope: !84, file: !33, line: 398, baseType: !57)
!115 = !DIDerivedType(tag: DW_TAG_member, name: "eofbit", scope: !84, file: !33, line: 405, baseType: !113, flags: DIFlagPublic | DIFlagStaticMember, extraData: i32 2)
!116 = !DIDerivedType(tag: DW_TAG_member, name: "failbit", scope: !84, file: !33, line: 410, baseType: !113, flags: DIFlagPublic | DIFlagStaticMember, extraData: i32 4)
!117 = !DIDerivedType(tag: DW_TAG_member, name: "goodbit", scope: !84, file: !33, line: 413, baseType: !113, flags: DIFlagPublic | DIFlagStaticMember, extraData: i32 0)
!118 = !DIDerivedType(tag: DW_TAG_member, name: "app", scope: !84, file: !33, line: 432, baseType: !119, flags: DIFlagPublic | DIFlagStaticMember, extraData: i32 1)
!119 = !DIDerivedType(tag: DW_TAG_const_type, baseType: !120)
!120 = !DIDerivedType(tag: DW_TAG_typedef, name: "openmode", scope: !84, file: !33, line: 429, baseType: !66)
!121 = !DIDerivedType(tag: DW_TAG_member, name: "ate", scope: !84, file: !33, line: 435, baseType: !119, flags: DIFlagPublic | DIFlagStaticMember, extraData: i32 2)
!122 = !DIDerivedType(tag: DW_TAG_member, name: "binary", scope: !84, file: !33, line: 440, baseType: !119, flags: DIFlagPublic | DIFlagStaticMember, extraData: i32 4)
!123 = !DIDerivedType(tag: DW_TAG_member, name: "in", scope: !84, file: !33, line: 443, baseType: !119, flags: DIFlagPublic | DIFlagStaticMember, extraData: i32 8)
!124 = !DIDerivedType(tag: DW_TAG_member, name: "out", scope: !84, file: !33, line: 446, baseType: !119, flags: DIFlagPublic | DIFlagStaticMember, extraData: i32 16)
!125 = !DIDerivedType(tag: DW_TAG_member, name: "trunc", scope: !84, file: !33, line: 449, baseType: !119, flags: DIFlagPublic | DIFlagStaticMember, extraData: i32 32)
!126 = !DIDerivedType(tag: DW_TAG_member, name: "beg", scope: !84, file: !33, line: 464, baseType: !127, flags: DIFlagPublic | DIFlagStaticMember, extraData: i32 0)
!127 = !DIDerivedType(tag: DW_TAG_const_type, baseType: !128)
!128 = !DIDerivedType(tag: DW_TAG_typedef, name: "seekdir", scope: !84, file: !33, line: 461, baseType: !77)
!129 = !DIDerivedType(tag: DW_TAG_member, name: "cur", scope: !84, file: !33, line: 467, baseType: !127, flags: DIFlagPublic | DIFlagStaticMember, extraData: i32 1)
!130 = !DIDerivedType(tag: DW_TAG_member, name: "end", scope: !84, file: !33, line: 470, baseType: !127, flags: DIFlagPublic | DIFlagStaticMember, extraData: i32 2)
!131 = !DIDerivedType(tag: DW_TAG_member, name: "_M_precision", scope: !84, file: !33, line: 522, baseType: !132, size: 64, offset: 64, flags: DIFlagProtected)
!132 = !DIDerivedType(tag: DW_TAG_typedef, name: "streamsize", scope: !34, file: !133, line: 98, baseType: !134)
!133 = !DIFile(filename: "C:/Xilinx/Vitis_HLS/2023.2/tps/mingw/8.3.0/win64.o/nt\5Clib\5Cgcc\5Cx86_64-w64-mingw32\5C8.3.0\5Cinclude\5Cc++\5Cbits/postypes.h", directory: "C:\5CVitis_Libraries\5Cquantitative_finance\5CL1\5Ctests\5Cpca")
!134 = !DIDerivedType(tag: DW_TAG_typedef, name: "ptrdiff_t", scope: !34, file: !135, line: 239, baseType: !136)
!135 = !DIFile(filename: "C:/Xilinx/Vitis_HLS/2023.2/tps/mingw/8.3.0/win64.o/nt\5Clib\5Cgcc\5Cx86_64-w64-mingw32\5C8.3.0\5Cinclude\5Cc++\5Cx86_64-w64-mingw32\5Cbits/c++config.h", directory: "C:\5CVitis_Libraries\5Cquantitative_finance\5CL1\5Ctests\5Cpca")
!136 = !DIBasicType(name: "long int", size: 64, encoding: DW_ATE_signed)
!137 = !DIDerivedType(tag: DW_TAG_member, name: "_M_width", scope: !84, file: !33, line: 523, baseType: !132, size: 64, offset: 128, flags: DIFlagProtected)
!138 = !DIDerivedType(tag: DW_TAG_member, name: "_M_flags", scope: !84, file: !33, line: 524, baseType: !94, size: 32, offset: 192, flags: DIFlagProtected)
!139 = !DIDerivedType(tag: DW_TAG_member, name: "_M_exception", scope: !84, file: !33, line: 525, baseType: !114, size: 32, offset: 224, flags: DIFlagProtected)
!140 = !DIDerivedType(tag: DW_TAG_member, name: "_M_streambuf_state", scope: !84, file: !33, line: 526, baseType: !114, size: 32, offset: 256, flags: DIFlagProtected)
!141 = !DIDerivedType(tag: DW_TAG_member, name: "_M_callbacks", scope: !84, file: !33, line: 560, baseType: !142, size: 64, offset: 320, flags: DIFlagProtected)
!142 = !DIDerivedType(tag: DW_TAG_pointer_type, baseType: !143, size: 64)
!143 = distinct !DICompositeType(tag: DW_TAG_structure_type, name: "_Callback_list", scope: !84, file: !33, line: 530, size: 192, flags: DIFlagTypePassByValue, elements: !144, identifier: "_ZTSNSt8ios_base14_Callback_listE")
!144 = !{!145, !146, !152, !153, !156, !160, !163}
!145 = !DIDerivedType(tag: DW_TAG_member, name: "_M_next", scope: !143, file: !33, line: 533, baseType: !142, size: 64)
!146 = !DIDerivedType(tag: DW_TAG_member, name: "_M_fn", scope: !143, file: !33, line: 534, baseType: !147, size: 64, offset: 64)
!147 = !DIDerivedType(tag: DW_TAG_typedef, name: "event_callback", scope: !84, file: !33, line: 506, baseType: !148)
!148 = !DIDerivedType(tag: DW_TAG_pointer_type, baseType: !149, size: 64)
!149 = !DISubroutineType(types: !150)
!150 = !{null, !83, !151, !91}
!151 = !DIDerivedType(tag: DW_TAG_reference_type, baseType: !84, size: 64)
!152 = !DIDerivedType(tag: DW_TAG_member, name: "_M_index", scope: !143, file: !33, line: 535, baseType: !91, size: 32, offset: 128)
!153 = !DIDerivedType(tag: DW_TAG_member, name: "_M_refcount", scope: !143, file: !33, line: 536, baseType: !154, size: 32, offset: 160)
!154 = !DIDerivedType(tag: DW_TAG_typedef, name: "_Atomic_word", file: !155, line: 32, baseType: !91)
!155 = !DIFile(filename: "C:/Xilinx/Vitis_HLS/2023.2/tps/mingw/8.3.0/win64.o/nt\5Clib\5Cgcc\5Cx86_64-w64-mingw32\5C8.3.0\5Cinclude\5Cc++\5Cx86_64-w64-mingw32\5Cbits/atomic_word.h", directory: "C:\5CVitis_Libraries\5Cquantitative_finance\5CL1\5Ctests\5Cpca")
!156 = !DISubprogram(name: "_Callback_list", scope: !143, file: !33, line: 538, type: !157, isLocal: false, isDefinition: false, scopeLine: 538, flags: DIFlagPrototyped, isOptimized: false)
!157 = !DISubroutineType(types: !158)
!158 = !{null, !159, !147, !91, !142}
!159 = !DIDerivedType(tag: DW_TAG_pointer_type, baseType: !143, size: 64, flags: DIFlagArtificial | DIFlagObjectPointer)
!160 = !DISubprogram(name: "_M_add_reference", linkageName: "_ZNSt8ios_base14_Callback_list16_M_add_referenceEv", scope: !143, file: !33, line: 543, type: !161, isLocal: false, isDefinition: false, scopeLine: 543, flags: DIFlagPrototyped, isOptimized: false)
!161 = !DISubroutineType(types: !162)
!162 = !{null, !159}
!163 = !DISubprogram(name: "_M_remove_reference", linkageName: "_ZNSt8ios_base14_Callback_list19_M_remove_referenceEv", scope: !143, file: !33, line: 547, type: !164, isLocal: false, isDefinition: false, scopeLine: 547, flags: DIFlagPrototyped, isOptimized: false)
!164 = !DISubroutineType(types: !165)
!165 = !{!91, !159}
!166 = !DIDerivedType(tag: DW_TAG_member, name: "_M_word_zero", scope: !84, file: !33, line: 577, baseType: !167, size: 128, offset: 384, flags: DIFlagProtected)
!167 = distinct !DICompositeType(tag: DW_TAG_structure_type, name: "_Words", scope: !84, file: !33, line: 569, size: 128, flags: DIFlagTypePassByValue, elements: !168, identifier: "_ZTSNSt8ios_base6_WordsE")
!168 = !{!169, !171, !172}
!169 = !DIDerivedType(tag: DW_TAG_member, name: "_M_pword", scope: !167, file: !33, line: 571, baseType: !170, size: 64)
!170 = !DIDerivedType(tag: DW_TAG_pointer_type, baseType: null, size: 64)
!171 = !DIDerivedType(tag: DW_TAG_member, name: "_M_iword", scope: !167, file: !33, line: 572, baseType: !136, size: 64, offset: 64)
!172 = !DISubprogram(name: "_Words", scope: !167, file: !33, line: 573, type: !173, isLocal: false, isDefinition: false, scopeLine: 573, flags: DIFlagPrototyped, isOptimized: false)
!173 = !DISubroutineType(types: !174)
!174 = !{null, !175}
!175 = !DIDerivedType(tag: DW_TAG_pointer_type, baseType: !167, size: 64, flags: DIFlagArtificial | DIFlagObjectPointer)
!176 = !DIDerivedType(tag: DW_TAG_member, name: "_M_local_word", scope: !84, file: !33, line: 582, baseType: !177, size: 1024, offset: 512, flags: DIFlagProtected)
!177 = !DICompositeType(tag: DW_TAG_array_type, baseType: !167, size: 1024, elements: !178)
!178 = !{!179}
!179 = !DISubrange(count: 8)
!180 = !DIDerivedType(tag: DW_TAG_member, name: "_M_word_size", scope: !84, file: !33, line: 585, baseType: !91, size: 32, offset: 1536, flags: DIFlagProtected)
!181 = !DIDerivedType(tag: DW_TAG_member, name: "_M_word", scope: !84, file: !33, line: 586, baseType: !182, size: 64, offset: 1600, flags: DIFlagProtected)
!182 = !DIDerivedType(tag: DW_TAG_pointer_type, baseType: !167, size: 64)
!183 = !DIDerivedType(tag: DW_TAG_member, name: "_M_ios_locale", scope: !84, file: !33, line: 592, baseType: !184, size: 64, offset: 1664, flags: DIFlagProtected)
!184 = distinct !DICompositeType(tag: DW_TAG_class_type, name: "locale", scope: !34, file: !185, line: 62, size: 64, flags: DIFlagTypePassByReference, elements: !186, identifier: "_ZTSSt6locale")
!185 = !DIFile(filename: "C:/Xilinx/Vitis_HLS/2023.2/tps/mingw/8.3.0/win64.o/nt\5Clib\5Cgcc\5Cx86_64-w64-mingw32\5C8.3.0\5Cinclude\5Cc++\5Cbits/locale_classes.h", directory: "C:\5CVitis_Libraries\5Cquantitative_finance\5CL1\5Ctests\5Cpca")
!186 = !{!187, !190, !191, !192, !193, !194, !195, !196, !197, !360, !361, !362, !366, !367, !368, !372, !377, !380, !383, !974, !977, !980, !981, !984, !988, !991, !992, !995, !998, !1001, !1002, !1003, !1006}
!187 = !DIDerivedType(tag: DW_TAG_member, name: "none", scope: !184, file: !185, line: 98, baseType: !188, flags: DIFlagPublic | DIFlagStaticMember, extraData: i32 0)
!188 = !DIDerivedType(tag: DW_TAG_const_type, baseType: !189)
!189 = !DIDerivedType(tag: DW_TAG_typedef, name: "category", scope: !184, file: !185, line: 67, baseType: !91)
!190 = !DIDerivedType(tag: DW_TAG_member, name: "ctype", scope: !184, file: !185, line: 99, baseType: !188, flags: DIFlagPublic | DIFlagStaticMember, extraData: i32 1)
!191 = !DIDerivedType(tag: DW_TAG_member, name: "numeric", scope: !184, file: !185, line: 100, baseType: !188, flags: DIFlagPublic | DIFlagStaticMember, extraData: i32 2)
!192 = !DIDerivedType(tag: DW_TAG_member, name: "collate", scope: !184, file: !185, line: 101, baseType: !188, flags: DIFlagPublic | DIFlagStaticMember, extraData: i32 4)
!193 = !DIDerivedType(tag: DW_TAG_member, name: "time", scope: !184, file: !185, line: 102, baseType: !188, flags: DIFlagPublic | DIFlagStaticMember, extraData: i32 8)
!194 = !DIDerivedType(tag: DW_TAG_member, name: "monetary", scope: !184, file: !185, line: 103, baseType: !188, flags: DIFlagPublic | DIFlagStaticMember, extraData: i32 16)
!195 = !DIDerivedType(tag: DW_TAG_member, name: "messages", scope: !184, file: !185, line: 104, baseType: !188, flags: DIFlagPublic | DIFlagStaticMember, extraData: i32 32)
!196 = !DIDerivedType(tag: DW_TAG_member, name: "all", scope: !184, file: !185, line: 105, baseType: !188, flags: DIFlagPublic | DIFlagStaticMember, extraData: i32 63)
!197 = !DIDerivedType(tag: DW_TAG_member, name: "_M_impl", scope: !184, file: !185, line: 309, baseType: !198, size: 64)
!198 = !DIDerivedType(tag: DW_TAG_pointer_type, baseType: !199, size: 64)
!199 = distinct !DICompositeType(tag: DW_TAG_class_type, name: "_Impl", scope: !184, file: !185, line: 522, size: 320, flags: DIFlagTypePassByReference, elements: !200, identifier: "_ZTSNSt6locale5_ImplE")
!200 = !{!201, !202, !292, !293, !294, !297, !302, !303, !304, !305, !306, !307, !311, !315, !316, !321, !324, !327, !328, !331, !332, !336, !340, !343, !346, !349, !352, !357}
!201 = !DIDerivedType(tag: DW_TAG_member, name: "_M_refcount", scope: !199, file: !185, line: 542, baseType: !154, size: 32)
!202 = !DIDerivedType(tag: DW_TAG_member, name: "_M_facets", scope: !199, file: !185, line: 543, baseType: !203, size: 64, offset: 64)
!203 = !DIDerivedType(tag: DW_TAG_pointer_type, baseType: !204, size: 64)
!204 = !DIDerivedType(tag: DW_TAG_pointer_type, baseType: !205, size: 64)
!205 = !DIDerivedType(tag: DW_TAG_const_type, baseType: !206)
!206 = distinct !DICompositeType(tag: DW_TAG_class_type, name: "facet", scope: !184, file: !185, line: 371, size: 128, flags: DIFlagTypePassByReference, elements: !207, vtableHolder: !206, identifier: "_ZTSNSt6locale5facetE")
!207 = !{!208, !209, !210, !214, !220, !224, !227, !233, !236, !241, !244, !247, !250, !253, !256, !260, !264, !268, !269, !291}
!208 = !DIDerivedType(tag: DW_TAG_member, name: "_vptr$facet", scope: !185, file: !185, baseType: !87, size: 64, flags: DIFlagArtificial)
!209 = !DIDerivedType(tag: DW_TAG_member, name: "_M_refcount", scope: !206, file: !185, line: 377, baseType: !154, size: 32, offset: 64)
!210 = !DIDerivedType(tag: DW_TAG_member, name: "_S_c_locale", scope: !206, file: !185, line: 380, baseType: !211, flags: DIFlagStaticMember)
!211 = !DIDerivedType(tag: DW_TAG_typedef, name: "__c_locale", scope: !34, file: !212, line: 49, baseType: !213)
!212 = !DIFile(filename: "C:/Xilinx/Vitis_HLS/2023.2/tps/mingw/8.3.0/win64.o/nt\5Clib\5Cgcc\5Cx86_64-w64-mingw32\5C8.3.0\5Cinclude\5Cc++\5Cx86_64-w64-mingw32\5Cbits/c++locale.h", directory: "C:\5CVitis_Libraries\5Cquantitative_finance\5CL1\5Ctests\5Cpca")
!213 = !DIDerivedType(tag: DW_TAG_pointer_type, baseType: !91, size: 64)
!214 = !DIDerivedType(tag: DW_TAG_member, name: "_S_c_name", scope: !206, file: !185, line: 383, baseType: !215, flags: DIFlagStaticMember)
!215 = !DICompositeType(tag: DW_TAG_array_type, baseType: !216, size: 16, elements: !218)
!216 = !DIDerivedType(tag: DW_TAG_const_type, baseType: !217)
!217 = !DIBasicType(name: "char", size: 8, encoding: DW_ATE_signed_char)
!218 = !{!219}
!219 = !DISubrange(count: 2)
!220 = !DIDerivedType(tag: DW_TAG_member, name: "_S_once", scope: !206, file: !185, line: 386, baseType: !221, flags: DIFlagStaticMember)
!221 = !DIDerivedType(tag: DW_TAG_typedef, name: "__gthread_once_t", file: !222, line: 347, baseType: !223)
!222 = !DIFile(filename: "C:/Xilinx/Vitis_HLS/2023.2/tps/mingw/8.3.0/win64.o/nt\5Clib\5Cgcc\5Cx86_64-w64-mingw32\5C8.3.0\5Cinclude\5Cc++\5Cx86_64-w64-mingw32\5Cbits/gthr-default.h", directory: "C:\5CVitis_Libraries\5Cquantitative_finance\5CL1\5Ctests\5Cpca")
!223 = distinct !DICompositeType(tag: DW_TAG_structure_type, file: !222, line: 344, size: 128, align: 64, flags: DIFlagFwdDecl, identifier: "_ZTS16__gthread_once_t")
!224 = !DISubprogram(name: "_S_initialize_once", linkageName: "_ZNSt6locale5facet18_S_initialize_onceEv", scope: !206, file: !185, line: 390, type: !225, isLocal: false, isDefinition: false, scopeLine: 390, flags: DIFlagPrototyped | DIFlagStaticMember, isOptimized: false)
!225 = !DISubroutineType(types: !226)
!226 = !{null}
!227 = !DISubprogram(name: "facet", scope: !206, file: !185, line: 403, type: !228, isLocal: false, isDefinition: false, scopeLine: 403, flags: DIFlagProtected | DIFlagExplicit | DIFlagPrototyped, isOptimized: false)
!228 = !DISubroutineType(types: !229)
!229 = !{null, !230, !231}
!230 = !DIDerivedType(tag: DW_TAG_pointer_type, baseType: !206, size: 64, flags: DIFlagArtificial | DIFlagObjectPointer)
!231 = !DIDerivedType(tag: DW_TAG_typedef, name: "size_t", scope: !34, file: !135, line: 238, baseType: !232)
!232 = !DIBasicType(name: "long unsigned int", size: 64, encoding: DW_ATE_unsigned)
!233 = !DISubprogram(name: "~facet", scope: !206, file: !185, line: 408, type: !234, isLocal: false, isDefinition: false, scopeLine: 408, containingType: !206, virtuality: DW_VIRTUALITY_virtual, virtualIndex: 0, flags: DIFlagProtected | DIFlagPrototyped, isOptimized: false)
!234 = !DISubroutineType(types: !235)
!235 = !{null, !230}
!236 = !DISubprogram(name: "_S_create_c_locale", linkageName: "_ZNSt6locale5facet18_S_create_c_localeERPiPKcS1_", scope: !206, file: !185, line: 411, type: !237, isLocal: false, isDefinition: false, scopeLine: 411, flags: DIFlagProtected | DIFlagPrototyped | DIFlagStaticMember, isOptimized: false)
!237 = !DISubroutineType(types: !238)
!238 = !{null, !239, !240, !211}
!239 = !DIDerivedType(tag: DW_TAG_reference_type, baseType: !211, size: 64)
!240 = !DIDerivedType(tag: DW_TAG_pointer_type, baseType: !216, size: 64)
!241 = !DISubprogram(name: "_S_clone_c_locale", linkageName: "_ZNSt6locale5facet17_S_clone_c_localeERPi", scope: !206, file: !185, line: 415, type: !242, isLocal: false, isDefinition: false, scopeLine: 415, flags: DIFlagProtected | DIFlagPrototyped | DIFlagStaticMember, isOptimized: false)
!242 = !DISubroutineType(types: !243)
!243 = !{!211, !239}
!244 = !DISubprogram(name: "_S_destroy_c_locale", linkageName: "_ZNSt6locale5facet19_S_destroy_c_localeERPi", scope: !206, file: !185, line: 418, type: !245, isLocal: false, isDefinition: false, scopeLine: 418, flags: DIFlagProtected | DIFlagPrototyped | DIFlagStaticMember, isOptimized: false)
!245 = !DISubroutineType(types: !246)
!246 = !{null, !239}
!247 = !DISubprogram(name: "_S_lc_ctype_c_locale", linkageName: "_ZNSt6locale5facet20_S_lc_ctype_c_localeEPiPKc", scope: !206, file: !185, line: 421, type: !248, isLocal: false, isDefinition: false, scopeLine: 421, flags: DIFlagProtected | DIFlagPrototyped | DIFlagStaticMember, isOptimized: false)
!248 = !DISubroutineType(types: !249)
!249 = !{!211, !211, !240}
!250 = !DISubprogram(name: "_S_get_c_locale", linkageName: "_ZNSt6locale5facet15_S_get_c_localeEv", scope: !206, file: !185, line: 426, type: !251, isLocal: false, isDefinition: false, scopeLine: 426, flags: DIFlagProtected | DIFlagPrototyped | DIFlagStaticMember, isOptimized: false)
!251 = !DISubroutineType(types: !252)
!252 = !{!211}
!253 = !DISubprogram(name: "_S_get_c_name", linkageName: "_ZNSt6locale5facet13_S_get_c_nameEv", scope: !206, file: !185, line: 429, type: !254, isLocal: false, isDefinition: false, scopeLine: 429, flags: DIFlagProtected | DIFlagPrototyped | DIFlagStaticMember, isOptimized: false)
!254 = !DISubroutineType(types: !255)
!255 = !{!240}
!256 = !DISubprogram(name: "facet", scope: !206, file: !185, line: 438, type: !257, isLocal: false, isDefinition: false, scopeLine: 438, flags: DIFlagProtected | DIFlagPrototyped, isOptimized: false)
!257 = !DISubroutineType(types: !258)
!258 = !{null, !230, !259}
!259 = !DIDerivedType(tag: DW_TAG_reference_type, baseType: !205, size: 64)
!260 = !DISubprogram(name: "operator=", linkageName: "_ZNSt6locale5facetaSERKS0_", scope: !206, file: !185, line: 441, type: !261, isLocal: false, isDefinition: false, scopeLine: 441, flags: DIFlagProtected | DIFlagPrototyped, isOptimized: false)
!261 = !DISubroutineType(types: !262)
!262 = !{!263, !230, !259}
!263 = !DIDerivedType(tag: DW_TAG_reference_type, baseType: !206, size: 64)
!264 = !DISubprogram(name: "_M_add_reference", linkageName: "_ZNKSt6locale5facet16_M_add_referenceEv", scope: !206, file: !185, line: 446, type: !265, isLocal: false, isDefinition: false, scopeLine: 446, flags: DIFlagPrototyped, isOptimized: false)
!265 = !DISubroutineType(types: !266)
!266 = !{null, !267}
!267 = !DIDerivedType(tag: DW_TAG_pointer_type, baseType: !205, size: 64, flags: DIFlagArtificial | DIFlagObjectPointer)
!268 = !DISubprogram(name: "_M_remove_reference", linkageName: "_ZNKSt6locale5facet19_M_remove_referenceEv", scope: !206, file: !185, line: 450, type: !265, isLocal: false, isDefinition: false, scopeLine: 450, flags: DIFlagPrototyped, isOptimized: false)
!269 = !DISubprogram(name: "_M_sso_shim", linkageName: "_ZNKSt6locale5facet11_M_sso_shimEPKNS_2idE", scope: !206, file: !185, line: 464, type: !270, isLocal: false, isDefinition: false, scopeLine: 464, flags: DIFlagPrototyped, isOptimized: false)
!270 = !DISubroutineType(types: !271)
!271 = !{!204, !267, !272}
!272 = !DIDerivedType(tag: DW_TAG_pointer_type, baseType: !273, size: 64)
!273 = !DIDerivedType(tag: DW_TAG_const_type, baseType: !274)
!274 = distinct !DICompositeType(tag: DW_TAG_class_type, name: "id", scope: !184, file: !185, line: 483, size: 64, flags: DIFlagTypePassByReference, elements: !275, identifier: "_ZTSNSt6locale2idE")
!275 = !{!276, !277, !278, !283, !284, !287}
!276 = !DIDerivedType(tag: DW_TAG_member, name: "_M_index", scope: !274, file: !185, line: 500, baseType: !231, size: 64)
!277 = !DIDerivedType(tag: DW_TAG_member, name: "_S_refcount", scope: !274, file: !185, line: 503, baseType: !154, flags: DIFlagStaticMember)
!278 = !DISubprogram(name: "operator=", linkageName: "_ZNSt6locale2idaSERKS0_", scope: !274, file: !185, line: 506, type: !279, isLocal: false, isDefinition: false, scopeLine: 506, flags: DIFlagPrototyped, isOptimized: false)
!279 = !DISubroutineType(types: !280)
!280 = !{null, !281, !282}
!281 = !DIDerivedType(tag: DW_TAG_pointer_type, baseType: !274, size: 64, flags: DIFlagArtificial | DIFlagObjectPointer)
!282 = !DIDerivedType(tag: DW_TAG_reference_type, baseType: !273, size: 64)
!283 = !DISubprogram(name: "id", scope: !274, file: !185, line: 508, type: !279, isLocal: false, isDefinition: false, scopeLine: 508, flags: DIFlagPrototyped, isOptimized: false)
!284 = !DISubprogram(name: "id", scope: !274, file: !185, line: 514, type: !285, isLocal: false, isDefinition: false, scopeLine: 514, flags: DIFlagPublic | DIFlagPrototyped, isOptimized: false)
!285 = !DISubroutineType(types: !286)
!286 = !{null, !281}
!287 = !DISubprogram(name: "_M_id", linkageName: "_ZNKSt6locale2id5_M_idEv", scope: !274, file: !185, line: 517, type: !288, isLocal: false, isDefinition: false, scopeLine: 517, flags: DIFlagPublic | DIFlagPrototyped, isOptimized: false)
!288 = !DISubroutineType(types: !289)
!289 = !{!231, !290}
!290 = !DIDerivedType(tag: DW_TAG_pointer_type, baseType: !273, size: 64, flags: DIFlagArtificial | DIFlagObjectPointer)
!291 = !DISubprogram(name: "_M_cow_shim", linkageName: "_ZNKSt6locale5facet11_M_cow_shimEPKNS_2idE", scope: !206, file: !185, line: 465, type: !270, isLocal: false, isDefinition: false, scopeLine: 465, flags: DIFlagPrototyped, isOptimized: false)
!292 = !DIDerivedType(tag: DW_TAG_member, name: "_M_facets_size", scope: !199, file: !185, line: 544, baseType: !231, size: 64, offset: 128)
!293 = !DIDerivedType(tag: DW_TAG_member, name: "_M_caches", scope: !199, file: !185, line: 545, baseType: !203, size: 64, offset: 192)
!294 = !DIDerivedType(tag: DW_TAG_member, name: "_M_names", scope: !199, file: !185, line: 546, baseType: !295, size: 64, offset: 256)
!295 = !DIDerivedType(tag: DW_TAG_pointer_type, baseType: !296, size: 64)
!296 = !DIDerivedType(tag: DW_TAG_pointer_type, baseType: !217, size: 64)
!297 = !DIDerivedType(tag: DW_TAG_member, name: "_S_id_ctype", scope: !199, file: !185, line: 547, baseType: !298, flags: DIFlagStaticMember)
!298 = !DICompositeType(tag: DW_TAG_array_type, baseType: !299, elements: !300)
!299 = !DIDerivedType(tag: DW_TAG_const_type, baseType: !272)
!300 = !{!301}
!301 = !DISubrange(count: -1)
!302 = !DIDerivedType(tag: DW_TAG_member, name: "_S_id_numeric", scope: !199, file: !185, line: 548, baseType: !298, flags: DIFlagStaticMember)
!303 = !DIDerivedType(tag: DW_TAG_member, name: "_S_id_collate", scope: !199, file: !185, line: 549, baseType: !298, flags: DIFlagStaticMember)
!304 = !DIDerivedType(tag: DW_TAG_member, name: "_S_id_time", scope: !199, file: !185, line: 550, baseType: !298, flags: DIFlagStaticMember)
!305 = !DIDerivedType(tag: DW_TAG_member, name: "_S_id_monetary", scope: !199, file: !185, line: 551, baseType: !298, flags: DIFlagStaticMember)
!306 = !DIDerivedType(tag: DW_TAG_member, name: "_S_id_messages", scope: !199, file: !185, line: 552, baseType: !298, flags: DIFlagStaticMember)
!307 = !DIDerivedType(tag: DW_TAG_member, name: "_S_facet_categories", scope: !199, file: !185, line: 553, baseType: !308, flags: DIFlagStaticMember)
!308 = !DICompositeType(tag: DW_TAG_array_type, baseType: !309, elements: !300)
!309 = !DIDerivedType(tag: DW_TAG_const_type, baseType: !310)
!310 = !DIDerivedType(tag: DW_TAG_pointer_type, baseType: !299, size: 64)
!311 = !DISubprogram(name: "_M_add_reference", linkageName: "_ZNSt6locale5_Impl16_M_add_referenceEv", scope: !199, file: !185, line: 556, type: !312, isLocal: false, isDefinition: false, scopeLine: 556, flags: DIFlagPrototyped, isOptimized: false)
!312 = !DISubroutineType(types: !313)
!313 = !{null, !314}
!314 = !DIDerivedType(tag: DW_TAG_pointer_type, baseType: !199, size: 64, flags: DIFlagArtificial | DIFlagObjectPointer)
!315 = !DISubprogram(name: "_M_remove_reference", linkageName: "_ZNSt6locale5_Impl19_M_remove_referenceEv", scope: !199, file: !185, line: 560, type: !312, isLocal: false, isDefinition: false, scopeLine: 560, flags: DIFlagPrototyped, isOptimized: false)
!316 = !DISubprogram(name: "_Impl", scope: !199, file: !185, line: 574, type: !317, isLocal: false, isDefinition: false, scopeLine: 574, flags: DIFlagPrototyped, isOptimized: false)
!317 = !DISubroutineType(types: !318)
!318 = !{null, !314, !319, !231}
!319 = !DIDerivedType(tag: DW_TAG_reference_type, baseType: !320, size: 64)
!320 = !DIDerivedType(tag: DW_TAG_const_type, baseType: !199)
!321 = !DISubprogram(name: "_Impl", scope: !199, file: !185, line: 575, type: !322, isLocal: false, isDefinition: false, scopeLine: 575, flags: DIFlagPrototyped, isOptimized: false)
!322 = !DISubroutineType(types: !323)
!323 = !{null, !314, !240, !231}
!324 = !DISubprogram(name: "_Impl", scope: !199, file: !185, line: 576, type: !325, isLocal: false, isDefinition: false, scopeLine: 576, flags: DIFlagPrototyped, isOptimized: false)
!325 = !DISubroutineType(types: !326)
!326 = !{null, !314, !231}
!327 = !DISubprogram(name: "~_Impl", scope: !199, file: !185, line: 578, type: !312, isLocal: false, isDefinition: false, scopeLine: 578, flags: DIFlagPrototyped, isOptimized: false)
!328 = !DISubprogram(name: "_Impl", scope: !199, file: !185, line: 580, type: !329, isLocal: false, isDefinition: false, scopeLine: 580, flags: DIFlagPrototyped, isOptimized: false)
!329 = !DISubroutineType(types: !330)
!330 = !{null, !314, !319}
!331 = !DISubprogram(name: "operator=", linkageName: "_ZNSt6locale5_ImplaSERKS0_", scope: !199, file: !185, line: 583, type: !329, isLocal: false, isDefinition: false, scopeLine: 583, flags: DIFlagPrototyped, isOptimized: false)
!332 = !DISubprogram(name: "_M_check_same_name", linkageName: "_ZNSt6locale5_Impl18_M_check_same_nameEv", scope: !199, file: !185, line: 586, type: !333, isLocal: false, isDefinition: false, scopeLine: 586, flags: DIFlagPrototyped, isOptimized: false)
!333 = !DISubroutineType(types: !334)
!334 = !{!335, !314}
!335 = !DIBasicType(name: "bool", size: 8, encoding: DW_ATE_boolean)
!336 = !DISubprogram(name: "_M_replace_categories", linkageName: "_ZNSt6locale5_Impl21_M_replace_categoriesEPKS0_i", scope: !199, file: !185, line: 597, type: !337, isLocal: false, isDefinition: false, scopeLine: 597, flags: DIFlagPrototyped, isOptimized: false)
!337 = !DISubroutineType(types: !338)
!338 = !{null, !314, !339, !189}
!339 = !DIDerivedType(tag: DW_TAG_pointer_type, baseType: !320, size: 64)
!340 = !DISubprogram(name: "_M_replace_category", linkageName: "_ZNSt6locale5_Impl19_M_replace_categoryEPKS0_PKPKNS_2idE", scope: !199, file: !185, line: 600, type: !341, isLocal: false, isDefinition: false, scopeLine: 600, flags: DIFlagPrototyped, isOptimized: false)
!341 = !DISubroutineType(types: !342)
!342 = !{null, !314, !339, !310}
!343 = !DISubprogram(name: "_M_replace_facet", linkageName: "_ZNSt6locale5_Impl16_M_replace_facetEPKS0_PKNS_2idE", scope: !199, file: !185, line: 603, type: !344, isLocal: false, isDefinition: false, scopeLine: 603, flags: DIFlagPrototyped, isOptimized: false)
!344 = !DISubroutineType(types: !345)
!345 = !{null, !314, !339, !272}
!346 = !DISubprogram(name: "_M_install_facet", linkageName: "_ZNSt6locale5_Impl16_M_install_facetEPKNS_2idEPKNS_5facetE", scope: !199, file: !185, line: 606, type: !347, isLocal: false, isDefinition: false, scopeLine: 606, flags: DIFlagPrototyped, isOptimized: false)
!347 = !DISubroutineType(types: !348)
!348 = !{null, !314, !272, !204}
!349 = !DISubprogram(name: "_M_install_cache", linkageName: "_ZNSt6locale5_Impl16_M_install_cacheEPKNS_5facetEm", scope: !199, file: !185, line: 622, type: !350, isLocal: false, isDefinition: false, scopeLine: 622, flags: DIFlagPrototyped, isOptimized: false)
!350 = !DISubroutineType(types: !351)
!351 = !{null, !314, !204, !231}
!352 = !DISubprogram(name: "_M_init_extra", linkageName: "_ZNSt6locale5_Impl13_M_init_extraEPPNS_5facetE", scope: !199, file: !185, line: 624, type: !353, isLocal: false, isDefinition: false, scopeLine: 624, flags: DIFlagPrototyped, isOptimized: false)
!353 = !DISubroutineType(types: !354)
!354 = !{null, !314, !355}
!355 = !DIDerivedType(tag: DW_TAG_pointer_type, baseType: !356, size: 64)
!356 = !DIDerivedType(tag: DW_TAG_pointer_type, baseType: !206, size: 64)
!357 = !DISubprogram(name: "_M_init_extra", linkageName: "_ZNSt6locale5_Impl13_M_init_extraEPvS1_PKcS3_", scope: !199, file: !185, line: 625, type: !358, isLocal: false, isDefinition: false, scopeLine: 625, flags: DIFlagPrototyped, isOptimized: false)
!358 = !DISubroutineType(types: !359)
!359 = !{null, !314, !170, !170, !240, !240}
!360 = !DIDerivedType(tag: DW_TAG_member, name: "_S_classic", scope: !184, file: !185, line: 312, baseType: !198, flags: DIFlagStaticMember)
!361 = !DIDerivedType(tag: DW_TAG_member, name: "_S_global", scope: !184, file: !185, line: 315, baseType: !198, flags: DIFlagStaticMember)
!362 = !DIDerivedType(tag: DW_TAG_member, name: "_S_categories", scope: !184, file: !185, line: 321, baseType: !363, flags: DIFlagStaticMember)
!363 = !DIDerivedType(tag: DW_TAG_const_type, baseType: !364)
!364 = !DIDerivedType(tag: DW_TAG_pointer_type, baseType: !365, size: 64)
!365 = !DIDerivedType(tag: DW_TAG_const_type, baseType: !240)
!366 = !DIDerivedType(tag: DW_TAG_member, name: "_S_once", scope: !184, file: !185, line: 336, baseType: !221, flags: DIFlagStaticMember)
!367 = !DIDerivedType(tag: DW_TAG_member, name: "_S_twinned_facets", scope: !184, file: !185, line: 355, baseType: !298, flags: DIFlagStaticMember)
!368 = !DISubprogram(name: "locale", scope: !184, file: !185, line: 117, type: !369, isLocal: false, isDefinition: false, scopeLine: 117, flags: DIFlagPublic | DIFlagPrototyped, isOptimized: false)
!369 = !DISubroutineType(types: !370)
!370 = !{null, !371}
!371 = !DIDerivedType(tag: DW_TAG_pointer_type, baseType: !184, size: 64, flags: DIFlagArtificial | DIFlagObjectPointer)
!372 = !DISubprogram(name: "locale", scope: !184, file: !185, line: 126, type: !373, isLocal: false, isDefinition: false, scopeLine: 126, flags: DIFlagPublic | DIFlagPrototyped, isOptimized: false)
!373 = !DISubroutineType(types: !374)
!374 = !{null, !371, !375}
!375 = !DIDerivedType(tag: DW_TAG_reference_type, baseType: !376, size: 64)
!376 = !DIDerivedType(tag: DW_TAG_const_type, baseType: !184)
!377 = !DISubprogram(name: "locale", scope: !184, file: !185, line: 137, type: !378, isLocal: false, isDefinition: false, scopeLine: 137, flags: DIFlagPublic | DIFlagExplicit | DIFlagPrototyped, isOptimized: false)
!378 = !DISubroutineType(types: !379)
!379 = !{null, !371, !240}
!380 = !DISubprogram(name: "locale", scope: !184, file: !185, line: 151, type: !381, isLocal: false, isDefinition: false, scopeLine: 151, flags: DIFlagPublic | DIFlagPrototyped, isOptimized: false)
!381 = !DISubroutineType(types: !382)
!382 = !{null, !371, !375, !240, !189}
!383 = !DISubprogram(name: "locale", scope: !184, file: !185, line: 163, type: !384, isLocal: false, isDefinition: false, scopeLine: 163, flags: DIFlagPublic | DIFlagExplicit | DIFlagPrototyped, isOptimized: false)
!384 = !DISubroutineType(types: !385)
!385 = !{null, !371, !386}
!386 = !DIDerivedType(tag: DW_TAG_reference_type, baseType: !387, size: 64)
!387 = !DIDerivedType(tag: DW_TAG_const_type, baseType: !388)
!388 = !DIDerivedType(tag: DW_TAG_typedef, name: "string", scope: !390, file: !389, line: 74, baseType: !391)
!389 = !DIFile(filename: "C:/Xilinx/Vitis_HLS/2023.2/tps/mingw/8.3.0/win64.o/nt\5Clib\5Cgcc\5Cx86_64-w64-mingw32\5C8.3.0\5Cinclude\5Cc++\5Cbits/stringfwd.h", directory: "C:\5CVitis_Libraries\5Cquantitative_finance\5CL1\5Ctests\5Cpca")
!390 = !DINamespace(name: "__cxx11", scope: !34, exportSymbols: true)
!391 = distinct !DICompositeType(tag: DW_TAG_class_type, name: "basic_string<char, std::char_traits<char>, std::allocator<char> >", scope: !390, file: !392, line: 1607, size: 256, flags: DIFlagTypePassByReference, elements: !393, templateParams: !920, identifier: "_ZTSNSt7__cxx1112basic_stringIcSt11char_traitsIcESaIcEEE")
!392 = !DIFile(filename: "C:/Xilinx/Vitis_HLS/2023.2/tps/mingw/8.3.0/win64.o/nt\5Clib\5Cgcc\5Cx86_64-w64-mingw32\5C8.3.0\5Cinclude\5Cc++\5Cbits/basic_string.tcc", directory: "C:\5CVitis_Libraries\5Cquantitative_finance\5CL1\5Ctests\5Cpca")
!393 = !{!394, !505, !525, !526, !534, !538, !541, !546, !549, !555, !556, !557, !560, !564, !567, !568, !571, !572, !576, !581, !584, !587, !590, !593, !596, !597, !600, !606, !611, !614, !617, !620, !624, !627, !630, !631, !634, !635, !638, !641, !644, !647, !650, !653, !657, !662, !665, !668, !669, !673, !676, !679, !682, !685, !688, !691, !692, !693, !698, !703, !704, !705, !706, !707, !708, !709, !712, !713, !714, !715, !716, !717, !718, !719, !720, !721, !730, !736, !737, !738, !741, !744, !745, !746, !747, !748, !749, !750, !751, !754, !757, !758, !761, !762, !765, !766, !767, !768, !769, !770, !771, !772, !775, !778, !781, !784, !787, !790, !793, !797, !800, !803, !806, !807, !810, !813, !816, !819, !822, !825, !828, !831, !834, !837, !840, !843, !846, !849, !850, !853, !854, !857, !860, !863, !864, !867, !870, !873, !876, !879, !880, !881, !882, !883, !884, !885, !886, !887, !888, !889, !890, !891, !892, !893, !894, !895, !896, !897, !898, !899, !902, !905, !908, !911, !914, !917}
!394 = !DIDerivedType(tag: DW_TAG_member, name: "npos", scope: !391, file: !395, line: 101, baseType: !396, flags: DIFlagPublic | DIFlagStaticMember, extraData: i64 -1)
!395 = !DIFile(filename: "C:/Xilinx/Vitis_HLS/2023.2/tps/mingw/8.3.0/win64.o/nt\5Clib\5Cgcc\5Cx86_64-w64-mingw32\5C8.3.0\5Cinclude\5Cc++\5Cbits/basic_string.h", directory: "C:\5CVitis_Libraries\5Cquantitative_finance\5CL1\5Ctests\5Cpca")
!396 = !DIDerivedType(tag: DW_TAG_const_type, baseType: !397)
!397 = !DIDerivedType(tag: DW_TAG_typedef, name: "size_type", scope: !391, file: !395, line: 88, baseType: !398)
!398 = !DIDerivedType(tag: DW_TAG_typedef, name: "size_type", scope: !400, file: !399, line: 61, baseType: !482)
!399 = !DIFile(filename: "C:/Xilinx/Vitis_HLS/2023.2/tps/mingw/8.3.0/win64.o/nt\5Clib\5Cgcc\5Cx86_64-w64-mingw32\5C8.3.0\5Cinclude\5Cc++\5Cext/alloc_traits.h", directory: "C:\5CVitis_Libraries\5Cquantitative_finance\5CL1\5Ctests\5Cpca")
!400 = distinct !DICompositeType(tag: DW_TAG_structure_type, name: "__alloc_traits<std::allocator<char>, char>", scope: !401, file: !399, line: 50, size: 8, flags: DIFlagTypePassByValue, elements: !402, templateParams: !504, identifier: "_ZTSN9__gnu_cxx14__alloc_traitsISaIcEcEE")
!401 = !DINamespace(name: "__gnu_cxx", scope: null)
!402 = !{!403, !490, !493, !497, !500, !501, !502, !503}
!403 = !DIDerivedType(tag: DW_TAG_inheritance, scope: !400, baseType: !404)
!404 = distinct !DICompositeType(tag: DW_TAG_structure_type, name: "allocator_traits<std::allocator<char> >", scope: !34, file: !405, line: 384, size: 8, flags: DIFlagTypePassByValue, elements: !406, templateParams: !488, identifier: "_ZTSSt16allocator_traitsISaIcEE")
!405 = !DIFile(filename: "C:/Xilinx/Vitis_HLS/2023.2/tps/mingw/8.3.0/win64.o/nt\5Clib\5Cgcc\5Cx86_64-w64-mingw32\5C8.3.0\5Cinclude\5Cc++\5Cbits/alloc_traits.h", directory: "C:\5CVitis_Libraries\5Cquantitative_finance\5CL1\5Ctests\5Cpca")
!406 = !{!407, !472, !476, !479, !485}
!407 = !DISubprogram(name: "allocate", linkageName: "_ZNSt16allocator_traitsISaIcEE8allocateERS0_m", scope: !404, file: !405, line: 435, type: !408, isLocal: false, isDefinition: false, scopeLine: 435, flags: DIFlagPrototyped | DIFlagStaticMember, isOptimized: false)
!408 = !DISubroutineType(types: !409)
!409 = !{!410, !411, !471}
!410 = !DIDerivedType(tag: DW_TAG_typedef, name: "pointer", scope: !404, file: !405, line: 392, baseType: !296)
!411 = !DIDerivedType(tag: DW_TAG_reference_type, baseType: !412, size: 64)
!412 = !DIDerivedType(tag: DW_TAG_typedef, name: "allocator_type", scope: !404, file: !405, line: 387, baseType: !413)
!413 = distinct !DICompositeType(tag: DW_TAG_class_type, name: "allocator<char>", scope: !34, file: !414, line: 199, size: 8, flags: DIFlagTypePassByReference, elements: !415, templateParams: !469, identifier: "_ZTSSaIcE")
!414 = !DIFile(filename: "C:/Xilinx/Vitis_HLS/2023.2/tps/mingw/8.3.0/win64.o/nt\5Clib\5Cgcc\5Cx86_64-w64-mingw32\5C8.3.0\5Cinclude\5Cc++\5Cbits/allocator.h", directory: "C:\5CVitis_Libraries\5Cquantitative_finance\5CL1\5Ctests\5Cpca")
!415 = !{!416, !459, !463, !468}
!416 = !DIDerivedType(tag: DW_TAG_inheritance, scope: !413, baseType: !417, flags: DIFlagPublic)
!417 = !DIDerivedType(tag: DW_TAG_typedef, name: "__allocator_base<char>", scope: !34, file: !418, line: 48, baseType: !419)
!418 = !DIFile(filename: "C:/Xilinx/Vitis_HLS/2023.2/tps/mingw/8.3.0/win64.o/nt\5Clib\5Cgcc\5Cx86_64-w64-mingw32\5C8.3.0\5Cinclude\5Cc++\5Cx86_64-w64-mingw32\5Cbits/c++allocator.h", directory: "C:\5CVitis_Libraries\5Cquantitative_finance\5CL1\5Ctests\5Cpca")
!419 = distinct !DICompositeType(tag: DW_TAG_class_type, name: "new_allocator<char>", scope: !401, file: !420, line: 58, size: 8, flags: DIFlagTypePassByReference, elements: !421, templateParams: !457, identifier: "_ZTSN9__gnu_cxx13new_allocatorIcEE")
!420 = !DIFile(filename: "C:/Xilinx/Vitis_HLS/2023.2/tps/mingw/8.3.0/win64.o/nt\5Clib\5Cgcc\5Cx86_64-w64-mingw32\5C8.3.0\5Cinclude\5Cc++\5Cext/new_allocator.h", directory: "C:\5CVitis_Libraries\5Cquantitative_finance\5CL1\5Ctests\5Cpca")
!421 = !{!422, !426, !431, !432, !439, !445, !451, !454}
!422 = !DISubprogram(name: "new_allocator", scope: !419, file: !420, line: 79, type: !423, isLocal: false, isDefinition: false, scopeLine: 79, flags: DIFlagPublic | DIFlagPrototyped, isOptimized: false)
!423 = !DISubroutineType(types: !424)
!424 = !{null, !425}
!425 = !DIDerivedType(tag: DW_TAG_pointer_type, baseType: !419, size: 64, flags: DIFlagArtificial | DIFlagObjectPointer)
!426 = !DISubprogram(name: "new_allocator", scope: !419, file: !420, line: 81, type: !427, isLocal: false, isDefinition: false, scopeLine: 81, flags: DIFlagPublic | DIFlagPrototyped, isOptimized: false)
!427 = !DISubroutineType(types: !428)
!428 = !{null, !425, !429}
!429 = !DIDerivedType(tag: DW_TAG_reference_type, baseType: !430, size: 64)
!430 = !DIDerivedType(tag: DW_TAG_const_type, baseType: !419)
!431 = !DISubprogram(name: "~new_allocator", scope: !419, file: !420, line: 86, type: !423, isLocal: false, isDefinition: false, scopeLine: 86, flags: DIFlagPublic | DIFlagPrototyped, isOptimized: false)
!432 = !DISubprogram(name: "address", linkageName: "_ZNK9__gnu_cxx13new_allocatorIcE7addressERc", scope: !419, file: !420, line: 89, type: !433, isLocal: false, isDefinition: false, scopeLine: 89, flags: DIFlagPublic | DIFlagPrototyped, isOptimized: false)
!433 = !DISubroutineType(types: !434)
!434 = !{!435, !436, !437}
!435 = !DIDerivedType(tag: DW_TAG_typedef, name: "pointer", scope: !419, file: !420, line: 63, baseType: !296)
!436 = !DIDerivedType(tag: DW_TAG_pointer_type, baseType: !430, size: 64, flags: DIFlagArtificial | DIFlagObjectPointer)
!437 = !DIDerivedType(tag: DW_TAG_typedef, name: "reference", scope: !419, file: !420, line: 65, baseType: !438)
!438 = !DIDerivedType(tag: DW_TAG_reference_type, baseType: !217, size: 64)
!439 = !DISubprogram(name: "address", linkageName: "_ZNK9__gnu_cxx13new_allocatorIcE7addressERKc", scope: !419, file: !420, line: 93, type: !440, isLocal: false, isDefinition: false, scopeLine: 93, flags: DIFlagPublic | DIFlagPrototyped, isOptimized: false)
!440 = !DISubroutineType(types: !441)
!441 = !{!442, !436, !443}
!442 = !DIDerivedType(tag: DW_TAG_typedef, name: "const_pointer", scope: !419, file: !420, line: 64, baseType: !240)
!443 = !DIDerivedType(tag: DW_TAG_typedef, name: "const_reference", scope: !419, file: !420, line: 66, baseType: !444)
!444 = !DIDerivedType(tag: DW_TAG_reference_type, baseType: !216, size: 64)
!445 = !DISubprogram(name: "allocate", linkageName: "_ZN9__gnu_cxx13new_allocatorIcE8allocateEmPKv", scope: !419, file: !420, line: 99, type: !446, isLocal: false, isDefinition: false, scopeLine: 99, flags: DIFlagPublic | DIFlagPrototyped, isOptimized: false)
!446 = !DISubroutineType(types: !447)
!447 = !{!435, !425, !448, !449}
!448 = !DIDerivedType(tag: DW_TAG_typedef, name: "size_type", file: !420, line: 61, baseType: !231)
!449 = !DIDerivedType(tag: DW_TAG_pointer_type, baseType: !450, size: 64)
!450 = !DIDerivedType(tag: DW_TAG_const_type, baseType: null)
!451 = !DISubprogram(name: "deallocate", linkageName: "_ZN9__gnu_cxx13new_allocatorIcE10deallocateEPcm", scope: !419, file: !420, line: 116, type: !452, isLocal: false, isDefinition: false, scopeLine: 116, flags: DIFlagPublic | DIFlagPrototyped, isOptimized: false)
!452 = !DISubroutineType(types: !453)
!453 = !{null, !425, !435, !448}
!454 = !DISubprogram(name: "max_size", linkageName: "_ZNK9__gnu_cxx13new_allocatorIcE8max_sizeEv", scope: !419, file: !420, line: 129, type: !455, isLocal: false, isDefinition: false, scopeLine: 129, flags: DIFlagPublic | DIFlagPrototyped, isOptimized: false)
!455 = !DISubroutineType(types: !456)
!456 = !{!448, !436}
!457 = !{!458}
!458 = !DITemplateTypeParameter(name: "_Tp", type: !217)
!459 = !DISubprogram(name: "allocator", scope: !413, file: !414, line: 131, type: !460, isLocal: false, isDefinition: false, scopeLine: 131, flags: DIFlagPublic | DIFlagPrototyped, isOptimized: false)
!460 = !DISubroutineType(types: !461)
!461 = !{null, !462}
!462 = !DIDerivedType(tag: DW_TAG_pointer_type, baseType: !413, size: 64, flags: DIFlagArtificial | DIFlagObjectPointer)
!463 = !DISubprogram(name: "allocator", scope: !413, file: !414, line: 133, type: !464, isLocal: false, isDefinition: false, scopeLine: 133, flags: DIFlagPublic | DIFlagPrototyped, isOptimized: false)
!464 = !DISubroutineType(types: !465)
!465 = !{null, !462, !466}
!466 = !DIDerivedType(tag: DW_TAG_reference_type, baseType: !467, size: 64)
!467 = !DIDerivedType(tag: DW_TAG_const_type, baseType: !413)
!468 = !DISubprogram(name: "~allocator", scope: !413, file: !414, line: 139, type: !460, isLocal: false, isDefinition: false, scopeLine: 139, flags: DIFlagPublic | DIFlagPrototyped, isOptimized: false)
!469 = !{!470}
!470 = !DITemplateTypeParameter(type: !217)
!471 = !DIDerivedType(tag: DW_TAG_typedef, name: "size_type", file: !405, line: 407, baseType: !231)
!472 = !DISubprogram(name: "allocate", linkageName: "_ZNSt16allocator_traitsISaIcEE8allocateERS0_mPKv", scope: !404, file: !405, line: 449, type: !473, isLocal: false, isDefinition: false, scopeLine: 449, flags: DIFlagPrototyped | DIFlagStaticMember, isOptimized: false)
!473 = !DISubroutineType(types: !474)
!474 = !{!410, !411, !471, !475}
!475 = !DIDerivedType(tag: DW_TAG_typedef, name: "const_void_pointer", file: !405, line: 401, baseType: !449)
!476 = !DISubprogram(name: "deallocate", linkageName: "_ZNSt16allocator_traitsISaIcEE10deallocateERS0_Pcm", scope: !404, file: !405, line: 461, type: !477, isLocal: false, isDefinition: false, scopeLine: 461, flags: DIFlagPrototyped | DIFlagStaticMember, isOptimized: false)
!477 = !DISubroutineType(types: !478)
!478 = !{null, !411, !410, !471}
!479 = !DISubprogram(name: "max_size", linkageName: "_ZNSt16allocator_traitsISaIcEE8max_sizeERKS0_", scope: !404, file: !405, line: 495, type: !480, isLocal: false, isDefinition: false, scopeLine: 495, flags: DIFlagPrototyped | DIFlagStaticMember, isOptimized: false)
!480 = !DISubroutineType(types: !481)
!481 = !{!482, !483}
!482 = !DIDerivedType(tag: DW_TAG_typedef, name: "size_type", scope: !404, file: !405, line: 407, baseType: !231)
!483 = !DIDerivedType(tag: DW_TAG_reference_type, baseType: !484, size: 64)
!484 = !DIDerivedType(tag: DW_TAG_const_type, baseType: !412)
!485 = !DISubprogram(name: "select_on_container_copy_construction", linkageName: "_ZNSt16allocator_traitsISaIcEE37select_on_container_copy_constructionERKS0_", scope: !404, file: !405, line: 504, type: !486, isLocal: false, isDefinition: false, scopeLine: 504, flags: DIFlagPrototyped | DIFlagStaticMember, isOptimized: false)
!486 = !DISubroutineType(types: !487)
!487 = !{!412, !483}
!488 = !{!489}
!489 = !DITemplateTypeParameter(name: "_Alloc", type: !413)
!490 = !DISubprogram(name: "_S_select_on_copy", linkageName: "_ZN9__gnu_cxx14__alloc_traitsISaIcEcE17_S_select_on_copyERKS1_", scope: !400, file: !399, line: 94, type: !491, isLocal: false, isDefinition: false, scopeLine: 94, flags: DIFlagPrototyped | DIFlagStaticMember, isOptimized: false)
!491 = !DISubroutineType(types: !492)
!492 = !{!413, !466}
!493 = !DISubprogram(name: "_S_on_swap", linkageName: "_ZN9__gnu_cxx14__alloc_traitsISaIcEcE10_S_on_swapERS1_S3_", scope: !400, file: !399, line: 97, type: !494, isLocal: false, isDefinition: false, scopeLine: 97, flags: DIFlagPrototyped | DIFlagStaticMember, isOptimized: false)
!494 = !DISubroutineType(types: !495)
!495 = !{null, !496, !496}
!496 = !DIDerivedType(tag: DW_TAG_reference_type, baseType: !413, size: 64)
!497 = !DISubprogram(name: "_S_propagate_on_copy_assign", linkageName: "_ZN9__gnu_cxx14__alloc_traitsISaIcEcE27_S_propagate_on_copy_assignEv", scope: !400, file: !399, line: 100, type: !498, isLocal: false, isDefinition: false, scopeLine: 100, flags: DIFlagPrototyped | DIFlagStaticMember, isOptimized: false)
!498 = !DISubroutineType(types: !499)
!499 = !{!335}
!500 = !DISubprogram(name: "_S_propagate_on_move_assign", linkageName: "_ZN9__gnu_cxx14__alloc_traitsISaIcEcE27_S_propagate_on_move_assignEv", scope: !400, file: !399, line: 103, type: !498, isLocal: false, isDefinition: false, scopeLine: 103, flags: DIFlagPrototyped | DIFlagStaticMember, isOptimized: false)
!501 = !DISubprogram(name: "_S_propagate_on_swap", linkageName: "_ZN9__gnu_cxx14__alloc_traitsISaIcEcE20_S_propagate_on_swapEv", scope: !400, file: !399, line: 106, type: !498, isLocal: false, isDefinition: false, scopeLine: 106, flags: DIFlagPrototyped | DIFlagStaticMember, isOptimized: false)
!502 = !DISubprogram(name: "_S_always_equal", linkageName: "_ZN9__gnu_cxx14__alloc_traitsISaIcEcE15_S_always_equalEv", scope: !400, file: !399, line: 109, type: !498, isLocal: false, isDefinition: false, scopeLine: 109, flags: DIFlagPrototyped | DIFlagStaticMember, isOptimized: false)
!503 = !DISubprogram(name: "_S_nothrow_move", linkageName: "_ZN9__gnu_cxx14__alloc_traitsISaIcEcE15_S_nothrow_moveEv", scope: !400, file: !399, line: 112, type: !498, isLocal: false, isDefinition: false, scopeLine: 112, flags: DIFlagPrototyped | DIFlagStaticMember, isOptimized: false)
!504 = !{!489, !470}
!505 = !DIDerivedType(tag: DW_TAG_member, name: "_M_dataplus", scope: !391, file: !395, line: 155, baseType: !506, size: 64)
!506 = distinct !DICompositeType(tag: DW_TAG_structure_type, name: "_Alloc_hider", scope: !391, file: !395, line: 139, size: 64, flags: DIFlagTypePassByReference, elements: !507, identifier: "_ZTSNSt7__cxx1112basic_stringIcSt11char_traitsIcESaIcEE12_Alloc_hiderE")
!507 = !{!508, !514, !517, !521}
!508 = !DIDerivedType(tag: DW_TAG_inheritance, scope: !506, baseType: !509)
!509 = !DIDerivedType(tag: DW_TAG_typedef, name: "allocator_type", scope: !391, file: !395, line: 87, baseType: !510)
!510 = !DIDerivedType(tag: DW_TAG_typedef, name: "_Char_alloc_type", scope: !391, file: !395, line: 80, baseType: !511)
!511 = !DIDerivedType(tag: DW_TAG_typedef, name: "other", scope: !512, file: !399, line: 117, baseType: !513)
!512 = distinct !DICompositeType(tag: DW_TAG_structure_type, name: "rebind<char>", scope: !400, file: !399, line: 116, size: 8, flags: DIFlagTypePassByValue, elements: !4, templateParams: !457, identifier: "_ZTSN9__gnu_cxx14__alloc_traitsISaIcEcE6rebindIcEE")
!513 = !DIDerivedType(tag: DW_TAG_typedef, name: "rebind_alloc<char>", scope: !404, file: !405, line: 422, baseType: !413)
!514 = !DIDerivedType(tag: DW_TAG_member, name: "_M_p", scope: !506, file: !395, line: 152, baseType: !515, size: 64)
!515 = !DIDerivedType(tag: DW_TAG_typedef, name: "pointer", scope: !391, file: !395, line: 92, baseType: !516)
!516 = !DIDerivedType(tag: DW_TAG_typedef, name: "pointer", scope: !400, file: !399, line: 59, baseType: !410)
!517 = !DISubprogram(name: "_Alloc_hider", scope: !506, file: !395, line: 145, type: !518, isLocal: false, isDefinition: false, scopeLine: 145, flags: DIFlagPrototyped, isOptimized: false)
!518 = !DISubroutineType(types: !519)
!519 = !{null, !520, !515, !466}
!520 = !DIDerivedType(tag: DW_TAG_pointer_type, baseType: !506, size: 64, flags: DIFlagArtificial | DIFlagObjectPointer)
!521 = !DISubprogram(name: "_Alloc_hider", scope: !506, file: !395, line: 148, type: !522, isLocal: false, isDefinition: false, scopeLine: 148, flags: DIFlagPrototyped, isOptimized: false)
!522 = !DISubroutineType(types: !523)
!523 = !{null, !520, !515, !524}
!524 = !DIDerivedType(tag: DW_TAG_rvalue_reference_type, baseType: !413, size: 64)
!525 = !DIDerivedType(tag: DW_TAG_member, name: "_M_string_length", scope: !391, file: !395, line: 156, baseType: !397, size: 64, offset: 64)
!526 = !DIDerivedType(tag: DW_TAG_member, scope: !391, file: !395, line: 160, baseType: !527, size: 128, offset: 128)
!527 = distinct !DICompositeType(tag: DW_TAG_union_type, scope: !391, file: !395, line: 160, size: 128, flags: DIFlagTypePassByValue, elements: !528, identifier: "_ZTSNSt7__cxx1112basic_stringIcSt11char_traitsIcESaIcEEUt0_E")
!528 = !{!529, !533}
!529 = !DIDerivedType(tag: DW_TAG_member, name: "_M_local_buf", scope: !527, file: !395, line: 162, baseType: !530, size: 128)
!530 = !DICompositeType(tag: DW_TAG_array_type, baseType: !217, size: 128, elements: !531)
!531 = !{!532}
!532 = !DISubrange(count: 16)
!533 = !DIDerivedType(tag: DW_TAG_member, name: "_M_allocated_capacity", scope: !527, file: !395, line: 163, baseType: !397, size: 64)
!534 = !DISubprogram(name: "_M_data", linkageName: "_ZNSt7__cxx1112basic_stringIcSt11char_traitsIcESaIcEE7_M_dataEPc", scope: !391, file: !395, line: 167, type: !535, isLocal: false, isDefinition: false, scopeLine: 167, flags: DIFlagPrototyped, isOptimized: false)
!535 = !DISubroutineType(types: !536)
!536 = !{null, !537, !515}
!537 = !DIDerivedType(tag: DW_TAG_pointer_type, baseType: !391, size: 64, flags: DIFlagArtificial | DIFlagObjectPointer)
!538 = !DISubprogram(name: "_M_length", linkageName: "_ZNSt7__cxx1112basic_stringIcSt11char_traitsIcESaIcEE9_M_lengthEm", scope: !391, file: !395, line: 171, type: !539, isLocal: false, isDefinition: false, scopeLine: 171, flags: DIFlagPrototyped, isOptimized: false)
!539 = !DISubroutineType(types: !540)
!540 = !{null, !537, !397}
!541 = !DISubprogram(name: "_M_data", linkageName: "_ZNKSt7__cxx1112basic_stringIcSt11char_traitsIcESaIcEE7_M_dataEv", scope: !391, file: !395, line: 175, type: !542, isLocal: false, isDefinition: false, scopeLine: 175, flags: DIFlagPrototyped, isOptimized: false)
!542 = !DISubroutineType(types: !543)
!543 = !{!515, !544}
!544 = !DIDerivedType(tag: DW_TAG_pointer_type, baseType: !545, size: 64, flags: DIFlagArtificial | DIFlagObjectPointer)
!545 = !DIDerivedType(tag: DW_TAG_const_type, baseType: !391)
!546 = !DISubprogram(name: "_M_local_data", linkageName: "_ZNSt7__cxx1112basic_stringIcSt11char_traitsIcESaIcEE13_M_local_dataEv", scope: !391, file: !395, line: 179, type: !547, isLocal: false, isDefinition: false, scopeLine: 179, flags: DIFlagPrototyped, isOptimized: false)
!547 = !DISubroutineType(types: !548)
!548 = !{!515, !537}
!549 = !DISubprogram(name: "_M_local_data", linkageName: "_ZNKSt7__cxx1112basic_stringIcSt11char_traitsIcESaIcEE13_M_local_dataEv", scope: !391, file: !395, line: 189, type: !550, isLocal: false, isDefinition: false, scopeLine: 189, flags: DIFlagPrototyped, isOptimized: false)
!550 = !DISubroutineType(types: !551)
!551 = !{!552, !544}
!552 = !DIDerivedType(tag: DW_TAG_typedef, name: "const_pointer", scope: !391, file: !395, line: 93, baseType: !553)
!553 = !DIDerivedType(tag: DW_TAG_typedef, name: "const_pointer", scope: !400, file: !399, line: 60, baseType: !554)
!554 = !DIDerivedType(tag: DW_TAG_typedef, name: "const_pointer", scope: !404, file: !405, line: 395, baseType: !240)
!555 = !DISubprogram(name: "_M_capacity", linkageName: "_ZNSt7__cxx1112basic_stringIcSt11char_traitsIcESaIcEE11_M_capacityEm", scope: !391, file: !395, line: 199, type: !539, isLocal: false, isDefinition: false, scopeLine: 199, flags: DIFlagPrototyped, isOptimized: false)
!556 = !DISubprogram(name: "_M_set_length", linkageName: "_ZNSt7__cxx1112basic_stringIcSt11char_traitsIcESaIcEE13_M_set_lengthEm", scope: !391, file: !395, line: 203, type: !539, isLocal: false, isDefinition: false, scopeLine: 203, flags: DIFlagPrototyped, isOptimized: false)
!557 = !DISubprogram(name: "_M_is_local", linkageName: "_ZNKSt7__cxx1112basic_stringIcSt11char_traitsIcESaIcEE11_M_is_localEv", scope: !391, file: !395, line: 210, type: !558, isLocal: false, isDefinition: false, scopeLine: 210, flags: DIFlagPrototyped, isOptimized: false)
!558 = !DISubroutineType(types: !559)
!559 = !{!335, !544}
!560 = !DISubprogram(name: "_M_create", linkageName: "_ZNSt7__cxx1112basic_stringIcSt11char_traitsIcESaIcEE9_M_createERmm", scope: !391, file: !395, line: 215, type: !561, isLocal: false, isDefinition: false, scopeLine: 215, flags: DIFlagPrototyped, isOptimized: false)
!561 = !DISubroutineType(types: !562)
!562 = !{!515, !537, !563, !397}
!563 = !DIDerivedType(tag: DW_TAG_reference_type, baseType: !397, size: 64)
!564 = !DISubprogram(name: "_M_dispose", linkageName: "_ZNSt7__cxx1112basic_stringIcSt11char_traitsIcESaIcEE10_M_disposeEv", scope: !391, file: !395, line: 218, type: !565, isLocal: false, isDefinition: false, scopeLine: 218, flags: DIFlagPrototyped, isOptimized: false)
!565 = !DISubroutineType(types: !566)
!566 = !{null, !537}
!567 = !DISubprogram(name: "_M_destroy", linkageName: "_ZNSt7__cxx1112basic_stringIcSt11char_traitsIcESaIcEE10_M_destroyEm", scope: !391, file: !395, line: 225, type: !539, isLocal: false, isDefinition: false, scopeLine: 225, flags: DIFlagPrototyped, isOptimized: false)
!568 = !DISubprogram(name: "_M_construct_aux_2", linkageName: "_ZNSt7__cxx1112basic_stringIcSt11char_traitsIcESaIcEE18_M_construct_aux_2Emc", scope: !391, file: !395, line: 247, type: !569, isLocal: false, isDefinition: false, scopeLine: 247, flags: DIFlagPrototyped, isOptimized: false)
!569 = !DISubroutineType(types: !570)
!570 = !{null, !537, !397, !217}
!571 = !DISubprogram(name: "_M_construct", linkageName: "_ZNSt7__cxx1112basic_stringIcSt11char_traitsIcESaIcEE12_M_constructEmc", scope: !391, file: !395, line: 272, type: !569, isLocal: false, isDefinition: false, scopeLine: 272, flags: DIFlagPrototyped, isOptimized: false)
!572 = !DISubprogram(name: "_M_get_allocator", linkageName: "_ZNSt7__cxx1112basic_stringIcSt11char_traitsIcESaIcEE16_M_get_allocatorEv", scope: !391, file: !395, line: 275, type: !573, isLocal: false, isDefinition: false, scopeLine: 275, flags: DIFlagPrototyped, isOptimized: false)
!573 = !DISubroutineType(types: !574)
!574 = !{!575, !537}
!575 = !DIDerivedType(tag: DW_TAG_reference_type, baseType: !509, size: 64)
!576 = !DISubprogram(name: "_M_get_allocator", linkageName: "_ZNKSt7__cxx1112basic_stringIcSt11char_traitsIcESaIcEE16_M_get_allocatorEv", scope: !391, file: !395, line: 279, type: !577, isLocal: false, isDefinition: false, scopeLine: 279, flags: DIFlagPrototyped, isOptimized: false)
!577 = !DISubroutineType(types: !578)
!578 = !{!579, !544}
!579 = !DIDerivedType(tag: DW_TAG_reference_type, baseType: !580, size: 64)
!580 = !DIDerivedType(tag: DW_TAG_const_type, baseType: !509)
!581 = !DISubprogram(name: "_M_check", linkageName: "_ZNKSt7__cxx1112basic_stringIcSt11char_traitsIcESaIcEE8_M_checkEmPKc", scope: !391, file: !395, line: 299, type: !582, isLocal: false, isDefinition: false, scopeLine: 299, flags: DIFlagPrototyped, isOptimized: false)
!582 = !DISubroutineType(types: !583)
!583 = !{!397, !544, !397, !240}
!584 = !DISubprogram(name: "_M_check_length", linkageName: "_ZNKSt7__cxx1112basic_stringIcSt11char_traitsIcESaIcEE15_M_check_lengthEmmPKc", scope: !391, file: !395, line: 309, type: !585, isLocal: false, isDefinition: false, scopeLine: 309, flags: DIFlagPrototyped, isOptimized: false)
!585 = !DISubroutineType(types: !586)
!586 = !{null, !544, !397, !397, !240}
!587 = !DISubprogram(name: "_M_limit", linkageName: "_ZNKSt7__cxx1112basic_stringIcSt11char_traitsIcESaIcEE8_M_limitEmm", scope: !391, file: !395, line: 318, type: !588, isLocal: false, isDefinition: false, scopeLine: 318, flags: DIFlagPrototyped, isOptimized: false)
!588 = !DISubroutineType(types: !589)
!589 = !{!397, !544, !397, !397}
!590 = !DISubprogram(name: "_M_disjunct", linkageName: "_ZNKSt7__cxx1112basic_stringIcSt11char_traitsIcESaIcEE11_M_disjunctEPKc", scope: !391, file: !395, line: 326, type: !591, isLocal: false, isDefinition: false, scopeLine: 326, flags: DIFlagPrototyped, isOptimized: false)
!591 = !DISubroutineType(types: !592)
!592 = !{!335, !544, !240}
!593 = !DISubprogram(name: "_S_copy", linkageName: "_ZNSt7__cxx1112basic_stringIcSt11char_traitsIcESaIcEE7_S_copyEPcPKcm", scope: !391, file: !395, line: 335, type: !594, isLocal: false, isDefinition: false, scopeLine: 335, flags: DIFlagPrototyped | DIFlagStaticMember, isOptimized: false)
!594 = !DISubroutineType(types: !595)
!595 = !{null, !296, !240, !397}
!596 = !DISubprogram(name: "_S_move", linkageName: "_ZNSt7__cxx1112basic_stringIcSt11char_traitsIcESaIcEE7_S_moveEPcPKcm", scope: !391, file: !395, line: 344, type: !594, isLocal: false, isDefinition: false, scopeLine: 344, flags: DIFlagPrototyped | DIFlagStaticMember, isOptimized: false)
!597 = !DISubprogram(name: "_S_assign", linkageName: "_ZNSt7__cxx1112basic_stringIcSt11char_traitsIcESaIcEE9_S_assignEPcmc", scope: !391, file: !395, line: 353, type: !598, isLocal: false, isDefinition: false, scopeLine: 353, flags: DIFlagPrototyped | DIFlagStaticMember, isOptimized: false)
!598 = !DISubroutineType(types: !599)
!599 = !{null, !296, !397, !217}
!600 = !DISubprogram(name: "_S_copy_chars", linkageName: "_ZNSt7__cxx1112basic_stringIcSt11char_traitsIcESaIcEE13_S_copy_charsEPcN9__gnu_cxx17__normal_iteratorIS5_S4_EES8_", scope: !391, file: !395, line: 372, type: !601, isLocal: false, isDefinition: false, scopeLine: 372, flags: DIFlagPrototyped | DIFlagStaticMember, isOptimized: false)
!601 = !DISubroutineType(types: !602)
!602 = !{null, !296, !603, !603}
!603 = !DIDerivedType(tag: DW_TAG_typedef, name: "iterator", scope: !391, file: !395, line: 94, baseType: !604)
!604 = distinct !DICompositeType(tag: DW_TAG_class_type, name: "__normal_iterator<char *, std::__cxx11::basic_string<char> >", scope: !401, file: !605, line: 764, flags: DIFlagFwdDecl, identifier: "_ZTSN9__gnu_cxx17__normal_iteratorIPcNSt7__cxx1112basic_stringIcSt11char_traitsIcESaIcEEEEE")
!605 = !DIFile(filename: "C:/Xilinx/Vitis_HLS/2023.2/tps/mingw/8.3.0/win64.o/nt\5Clib\5Cgcc\5Cx86_64-w64-mingw32\5C8.3.0\5Cinclude\5Cc++\5Cbits/stl_iterator.h", directory: "C:\5CVitis_Libraries\5Cquantitative_finance\5CL1\5Ctests\5Cpca")
!606 = !DISubprogram(name: "_S_copy_chars", linkageName: "_ZNSt7__cxx1112basic_stringIcSt11char_traitsIcESaIcEE13_S_copy_charsEPcN9__gnu_cxx17__normal_iteratorIPKcS4_EESA_", scope: !391, file: !395, line: 376, type: !607, isLocal: false, isDefinition: false, scopeLine: 376, flags: DIFlagPrototyped | DIFlagStaticMember, isOptimized: false)
!607 = !DISubroutineType(types: !608)
!608 = !{null, !296, !609, !609}
!609 = !DIDerivedType(tag: DW_TAG_typedef, name: "const_iterator", scope: !391, file: !395, line: 96, baseType: !610)
!610 = distinct !DICompositeType(tag: DW_TAG_class_type, name: "__normal_iterator<const char *, std::__cxx11::basic_string<char> >", scope: !401, file: !605, line: 764, flags: DIFlagFwdDecl, identifier: "_ZTSN9__gnu_cxx17__normal_iteratorIPKcNSt7__cxx1112basic_stringIcSt11char_traitsIcESaIcEEEEE")
!611 = !DISubprogram(name: "_S_copy_chars", linkageName: "_ZNSt7__cxx1112basic_stringIcSt11char_traitsIcESaIcEE13_S_copy_charsEPcS5_S5_", scope: !391, file: !395, line: 381, type: !612, isLocal: false, isDefinition: false, scopeLine: 381, flags: DIFlagPrototyped | DIFlagStaticMember, isOptimized: false)
!612 = !DISubroutineType(types: !613)
!613 = !{null, !296, !296, !296}
!614 = !DISubprogram(name: "_S_copy_chars", linkageName: "_ZNSt7__cxx1112basic_stringIcSt11char_traitsIcESaIcEE13_S_copy_charsEPcPKcS7_", scope: !391, file: !395, line: 385, type: !615, isLocal: false, isDefinition: false, scopeLine: 385, flags: DIFlagPrototyped | DIFlagStaticMember, isOptimized: false)
!615 = !DISubroutineType(types: !616)
!616 = !{null, !296, !240, !240}
!617 = !DISubprogram(name: "_S_compare", linkageName: "_ZNSt7__cxx1112basic_stringIcSt11char_traitsIcESaIcEE10_S_compareEmm", scope: !391, file: !395, line: 390, type: !618, isLocal: false, isDefinition: false, scopeLine: 390, flags: DIFlagPrototyped | DIFlagStaticMember, isOptimized: false)
!618 = !DISubroutineType(types: !619)
!619 = !{!91, !397, !397}
!620 = !DISubprogram(name: "_M_assign", linkageName: "_ZNSt7__cxx1112basic_stringIcSt11char_traitsIcESaIcEE9_M_assignERKS4_", scope: !391, file: !395, line: 403, type: !621, isLocal: false, isDefinition: false, scopeLine: 403, flags: DIFlagPrototyped, isOptimized: false)
!621 = !DISubroutineType(types: !622)
!622 = !{null, !537, !623}
!623 = !DIDerivedType(tag: DW_TAG_reference_type, baseType: !545, size: 64)
!624 = !DISubprogram(name: "_M_mutate", linkageName: "_ZNSt7__cxx1112basic_stringIcSt11char_traitsIcESaIcEE9_M_mutateEmmPKcm", scope: !391, file: !395, line: 406, type: !625, isLocal: false, isDefinition: false, scopeLine: 406, flags: DIFlagPrototyped, isOptimized: false)
!625 = !DISubroutineType(types: !626)
!626 = !{null, !537, !397, !397, !240, !397}
!627 = !DISubprogram(name: "_M_erase", linkageName: "_ZNSt7__cxx1112basic_stringIcSt11char_traitsIcESaIcEE8_M_eraseEmm", scope: !391, file: !395, line: 410, type: !628, isLocal: false, isDefinition: false, scopeLine: 410, flags: DIFlagPrototyped, isOptimized: false)
!628 = !DISubroutineType(types: !629)
!629 = !{null, !537, !397, !397}
!630 = !DISubprogram(name: "basic_string", scope: !391, file: !395, line: 420, type: !565, isLocal: false, isDefinition: false, scopeLine: 420, flags: DIFlagPublic | DIFlagPrototyped, isOptimized: false)
!631 = !DISubprogram(name: "basic_string", scope: !391, file: !395, line: 429, type: !632, isLocal: false, isDefinition: false, scopeLine: 429, flags: DIFlagPublic | DIFlagExplicit | DIFlagPrototyped, isOptimized: false)
!632 = !DISubroutineType(types: !633)
!633 = !{null, !537, !466}
!634 = !DISubprogram(name: "basic_string", scope: !391, file: !395, line: 437, type: !621, isLocal: false, isDefinition: false, scopeLine: 437, flags: DIFlagPublic | DIFlagPrototyped, isOptimized: false)
!635 = !DISubprogram(name: "basic_string", scope: !391, file: !395, line: 450, type: !636, isLocal: false, isDefinition: false, scopeLine: 450, flags: DIFlagPublic | DIFlagPrototyped, isOptimized: false)
!636 = !DISubroutineType(types: !637)
!637 = !{null, !537, !623, !397, !466}
!638 = !DISubprogram(name: "basic_string", scope: !391, file: !395, line: 465, type: !639, isLocal: false, isDefinition: false, scopeLine: 465, flags: DIFlagPublic | DIFlagPrototyped, isOptimized: false)
!639 = !DISubroutineType(types: !640)
!640 = !{null, !537, !623, !397, !397}
!641 = !DISubprogram(name: "basic_string", scope: !391, file: !395, line: 481, type: !642, isLocal: false, isDefinition: false, scopeLine: 481, flags: DIFlagPublic | DIFlagPrototyped, isOptimized: false)
!642 = !DISubroutineType(types: !643)
!643 = !{null, !537, !623, !397, !397, !466}
!644 = !DISubprogram(name: "basic_string", scope: !391, file: !395, line: 499, type: !645, isLocal: false, isDefinition: false, scopeLine: 499, flags: DIFlagPublic | DIFlagPrototyped, isOptimized: false)
!645 = !DISubroutineType(types: !646)
!646 = !{null, !537, !240, !397, !466}
!647 = !DISubprogram(name: "basic_string", scope: !391, file: !395, line: 514, type: !648, isLocal: false, isDefinition: false, scopeLine: 514, flags: DIFlagPublic | DIFlagPrototyped, isOptimized: false)
!648 = !DISubroutineType(types: !649)
!649 = !{null, !537, !240, !466}
!650 = !DISubprogram(name: "basic_string", scope: !391, file: !395, line: 529, type: !651, isLocal: false, isDefinition: false, scopeLine: 529, flags: DIFlagPublic | DIFlagPrototyped, isOptimized: false)
!651 = !DISubroutineType(types: !652)
!652 = !{null, !537, !397, !217, !466}
!653 = !DISubprogram(name: "basic_string", scope: !391, file: !395, line: 541, type: !654, isLocal: false, isDefinition: false, scopeLine: 541, flags: DIFlagPublic | DIFlagPrototyped, isOptimized: false)
!654 = !DISubroutineType(types: !655)
!655 = !{null, !537, !656}
!656 = !DIDerivedType(tag: DW_TAG_rvalue_reference_type, baseType: !391, size: 64)
!657 = !DISubprogram(name: "basic_string", scope: !391, file: !395, line: 568, type: !658, isLocal: false, isDefinition: false, scopeLine: 568, flags: DIFlagPublic | DIFlagPrototyped, isOptimized: false)
!658 = !DISubroutineType(types: !659)
!659 = !{null, !537, !660, !466}
!660 = distinct !DICompositeType(tag: DW_TAG_class_type, name: "initializer_list<char>", scope: !34, file: !661, line: 47, size: 128, align: 64, flags: DIFlagFwdDecl, identifier: "_ZTSSt16initializer_listIcE")
!661 = !DIFile(filename: "C:/Xilinx/Vitis_HLS/2023.2/tps/mingw/8.3.0/win64.o/nt\5Clib\5Cgcc\5Cx86_64-w64-mingw32\5C8.3.0\5Cinclude\5Cc++\5Cinitializer_list", directory: "C:\5CVitis_Libraries\5Cquantitative_finance\5CL1\5Ctests\5Cpca")
!662 = !DISubprogram(name: "basic_string", scope: !391, file: !395, line: 572, type: !663, isLocal: false, isDefinition: false, scopeLine: 572, flags: DIFlagPublic | DIFlagPrototyped, isOptimized: false)
!663 = !DISubroutineType(types: !664)
!664 = !{null, !537, !623, !466}
!665 = !DISubprogram(name: "basic_string", scope: !391, file: !395, line: 576, type: !666, isLocal: false, isDefinition: false, scopeLine: 576, flags: DIFlagPublic | DIFlagPrototyped, isOptimized: false)
!666 = !DISubroutineType(types: !667)
!667 = !{null, !537, !656, !466}
!668 = !DISubprogram(name: "~basic_string", scope: !391, file: !395, line: 656, type: !565, isLocal: false, isDefinition: false, scopeLine: 656, flags: DIFlagPublic | DIFlagPrototyped, isOptimized: false)
!669 = !DISubprogram(name: "operator=", linkageName: "_ZNSt7__cxx1112basic_stringIcSt11char_traitsIcESaIcEEaSERKS4_", scope: !391, file: !395, line: 664, type: !670, isLocal: false, isDefinition: false, scopeLine: 664, flags: DIFlagPublic | DIFlagPrototyped, isOptimized: false)
!670 = !DISubroutineType(types: !671)
!671 = !{!672, !537, !623}
!672 = !DIDerivedType(tag: DW_TAG_reference_type, baseType: !391, size: 64)
!673 = !DISubprogram(name: "operator=", linkageName: "_ZNSt7__cxx1112basic_stringIcSt11char_traitsIcESaIcEEaSEPKc", scope: !391, file: !395, line: 703, type: !674, isLocal: false, isDefinition: false, scopeLine: 703, flags: DIFlagPublic | DIFlagPrototyped, isOptimized: false)
!674 = !DISubroutineType(types: !675)
!675 = !{!672, !537, !240}
!676 = !DISubprogram(name: "operator=", linkageName: "_ZNSt7__cxx1112basic_stringIcSt11char_traitsIcESaIcEEaSEc", scope: !391, file: !395, line: 714, type: !677, isLocal: false, isDefinition: false, scopeLine: 714, flags: DIFlagPublic | DIFlagPrototyped, isOptimized: false)
!677 = !DISubroutineType(types: !678)
!678 = !{!672, !537, !217}
!679 = !DISubprogram(name: "operator=", linkageName: "_ZNSt7__cxx1112basic_stringIcSt11char_traitsIcESaIcEEaSEOS4_", scope: !391, file: !395, line: 732, type: !680, isLocal: false, isDefinition: false, scopeLine: 732, flags: DIFlagPublic | DIFlagPrototyped, isOptimized: false)
!680 = !DISubroutineType(types: !681)
!681 = !{!672, !537, !656}
!682 = !DISubprogram(name: "operator=", linkageName: "_ZNSt7__cxx1112basic_stringIcSt11char_traitsIcESaIcEEaSESt16initializer_listIcE", scope: !391, file: !395, line: 795, type: !683, isLocal: false, isDefinition: false, scopeLine: 795, flags: DIFlagPublic | DIFlagPrototyped, isOptimized: false)
!683 = !DISubroutineType(types: !684)
!684 = !{!672, !537, !660}
!685 = !DISubprogram(name: "begin", linkageName: "_ZNSt7__cxx1112basic_stringIcSt11char_traitsIcESaIcEE5beginEv", scope: !391, file: !395, line: 826, type: !686, isLocal: false, isDefinition: false, scopeLine: 826, flags: DIFlagPublic | DIFlagPrototyped, isOptimized: false)
!686 = !DISubroutineType(types: !687)
!687 = !{!603, !537}
!688 = !DISubprogram(name: "begin", linkageName: "_ZNKSt7__cxx1112basic_stringIcSt11char_traitsIcESaIcEE5beginEv", scope: !391, file: !395, line: 834, type: !689, isLocal: false, isDefinition: false, scopeLine: 834, flags: DIFlagPublic | DIFlagPrototyped, isOptimized: false)
!689 = !DISubroutineType(types: !690)
!690 = !{!609, !544}
!691 = !DISubprogram(name: "end", linkageName: "_ZNSt7__cxx1112basic_stringIcSt11char_traitsIcESaIcEE3endEv", scope: !391, file: !395, line: 842, type: !686, isLocal: false, isDefinition: false, scopeLine: 842, flags: DIFlagPublic | DIFlagPrototyped, isOptimized: false)
!692 = !DISubprogram(name: "end", linkageName: "_ZNKSt7__cxx1112basic_stringIcSt11char_traitsIcESaIcEE3endEv", scope: !391, file: !395, line: 850, type: !689, isLocal: false, isDefinition: false, scopeLine: 850, flags: DIFlagPublic | DIFlagPrototyped, isOptimized: false)
!693 = !DISubprogram(name: "rbegin", linkageName: "_ZNSt7__cxx1112basic_stringIcSt11char_traitsIcESaIcEE6rbeginEv", scope: !391, file: !395, line: 859, type: !694, isLocal: false, isDefinition: false, scopeLine: 859, flags: DIFlagPublic | DIFlagPrototyped, isOptimized: false)
!694 = !DISubroutineType(types: !695)
!695 = !{!696, !537}
!696 = !DIDerivedType(tag: DW_TAG_typedef, name: "reverse_iterator", scope: !391, file: !395, line: 98, baseType: !697)
!697 = distinct !DICompositeType(tag: DW_TAG_class_type, name: "reverse_iterator<__gnu_cxx::__normal_iterator<char *, std::__cxx11::basic_string<char> > >", scope: !34, file: !605, line: 101, flags: DIFlagFwdDecl, identifier: "_ZTSSt16reverse_iteratorIN9__gnu_cxx17__normal_iteratorIPcNSt7__cxx1112basic_stringIcSt11char_traitsIcESaIcEEEEEE")
!698 = !DISubprogram(name: "rbegin", linkageName: "_ZNKSt7__cxx1112basic_stringIcSt11char_traitsIcESaIcEE6rbeginEv", scope: !391, file: !395, line: 868, type: !699, isLocal: false, isDefinition: false, scopeLine: 868, flags: DIFlagPublic | DIFlagPrototyped, isOptimized: false)
!699 = !DISubroutineType(types: !700)
!700 = !{!701, !544}
!701 = !DIDerivedType(tag: DW_TAG_typedef, name: "const_reverse_iterator", scope: !391, file: !395, line: 97, baseType: !702)
!702 = distinct !DICompositeType(tag: DW_TAG_class_type, name: "reverse_iterator<__gnu_cxx::__normal_iterator<const char *, std::__cxx11::basic_string<char> > >", scope: !34, file: !605, line: 101, flags: DIFlagFwdDecl, identifier: "_ZTSSt16reverse_iteratorIN9__gnu_cxx17__normal_iteratorIPKcNSt7__cxx1112basic_stringIcSt11char_traitsIcESaIcEEEEEE")
!703 = !DISubprogram(name: "rend", linkageName: "_ZNSt7__cxx1112basic_stringIcSt11char_traitsIcESaIcEE4rendEv", scope: !391, file: !395, line: 877, type: !694, isLocal: false, isDefinition: false, scopeLine: 877, flags: DIFlagPublic | DIFlagPrototyped, isOptimized: false)
!704 = !DISubprogram(name: "rend", linkageName: "_ZNKSt7__cxx1112basic_stringIcSt11char_traitsIcESaIcEE4rendEv", scope: !391, file: !395, line: 886, type: !699, isLocal: false, isDefinition: false, scopeLine: 886, flags: DIFlagPublic | DIFlagPrototyped, isOptimized: false)
!705 = !DISubprogram(name: "cbegin", linkageName: "_ZNKSt7__cxx1112basic_stringIcSt11char_traitsIcESaIcEE6cbeginEv", scope: !391, file: !395, line: 895, type: !689, isLocal: false, isDefinition: false, scopeLine: 895, flags: DIFlagPublic | DIFlagPrototyped, isOptimized: false)
!706 = !DISubprogram(name: "cend", linkageName: "_ZNKSt7__cxx1112basic_stringIcSt11char_traitsIcESaIcEE4cendEv", scope: !391, file: !395, line: 903, type: !689, isLocal: false, isDefinition: false, scopeLine: 903, flags: DIFlagPublic | DIFlagPrototyped, isOptimized: false)
!707 = !DISubprogram(name: "crbegin", linkageName: "_ZNKSt7__cxx1112basic_stringIcSt11char_traitsIcESaIcEE7crbeginEv", scope: !391, file: !395, line: 912, type: !699, isLocal: false, isDefinition: false, scopeLine: 912, flags: DIFlagPublic | DIFlagPrototyped, isOptimized: false)
!708 = !DISubprogram(name: "crend", linkageName: "_ZNKSt7__cxx1112basic_stringIcSt11char_traitsIcESaIcEE5crendEv", scope: !391, file: !395, line: 921, type: !699, isLocal: false, isDefinition: false, scopeLine: 921, flags: DIFlagPublic | DIFlagPrototyped, isOptimized: false)
!709 = !DISubprogram(name: "size", linkageName: "_ZNKSt7__cxx1112basic_stringIcSt11char_traitsIcESaIcEE4sizeEv", scope: !391, file: !395, line: 930, type: !710, isLocal: false, isDefinition: false, scopeLine: 930, flags: DIFlagPublic | DIFlagPrototyped, isOptimized: false)
!710 = !DISubroutineType(types: !711)
!711 = !{!397, !544}
!712 = !DISubprogram(name: "length", linkageName: "_ZNKSt7__cxx1112basic_stringIcSt11char_traitsIcESaIcEE6lengthEv", scope: !391, file: !395, line: 936, type: !710, isLocal: false, isDefinition: false, scopeLine: 936, flags: DIFlagPublic | DIFlagPrototyped, isOptimized: false)
!713 = !DISubprogram(name: "max_size", linkageName: "_ZNKSt7__cxx1112basic_stringIcSt11char_traitsIcESaIcEE8max_sizeEv", scope: !391, file: !395, line: 941, type: !710, isLocal: false, isDefinition: false, scopeLine: 941, flags: DIFlagPublic | DIFlagPrototyped, isOptimized: false)
!714 = !DISubprogram(name: "resize", linkageName: "_ZNSt7__cxx1112basic_stringIcSt11char_traitsIcESaIcEE6resizeEmc", scope: !391, file: !395, line: 955, type: !569, isLocal: false, isDefinition: false, scopeLine: 955, flags: DIFlagPublic | DIFlagPrototyped, isOptimized: false)
!715 = !DISubprogram(name: "resize", linkageName: "_ZNSt7__cxx1112basic_stringIcSt11char_traitsIcESaIcEE6resizeEm", scope: !391, file: !395, line: 968, type: !539, isLocal: false, isDefinition: false, scopeLine: 968, flags: DIFlagPublic | DIFlagPrototyped, isOptimized: false)
!716 = !DISubprogram(name: "shrink_to_fit", linkageName: "_ZNSt7__cxx1112basic_stringIcSt11char_traitsIcESaIcEE13shrink_to_fitEv", scope: !391, file: !395, line: 974, type: !565, isLocal: false, isDefinition: false, scopeLine: 974, flags: DIFlagPublic | DIFlagPrototyped, isOptimized: false)
!717 = !DISubprogram(name: "capacity", linkageName: "_ZNKSt7__cxx1112basic_stringIcSt11char_traitsIcESaIcEE8capacityEv", scope: !391, file: !395, line: 993, type: !710, isLocal: false, isDefinition: false, scopeLine: 993, flags: DIFlagPublic | DIFlagPrototyped, isOptimized: false)
!718 = !DISubprogram(name: "reserve", linkageName: "_ZNSt7__cxx1112basic_stringIcSt11char_traitsIcESaIcEE7reserveEm", scope: !391, file: !395, line: 1017, type: !539, isLocal: false, isDefinition: false, scopeLine: 1017, flags: DIFlagPublic | DIFlagPrototyped, isOptimized: false)
!719 = !DISubprogram(name: "clear", linkageName: "_ZNSt7__cxx1112basic_stringIcSt11char_traitsIcESaIcEE5clearEv", scope: !391, file: !395, line: 1023, type: !565, isLocal: false, isDefinition: false, scopeLine: 1023, flags: DIFlagPublic | DIFlagPrototyped, isOptimized: false)
!720 = !DISubprogram(name: "empty", linkageName: "_ZNKSt7__cxx1112basic_stringIcSt11char_traitsIcESaIcEE5emptyEv", scope: !391, file: !395, line: 1031, type: !558, isLocal: false, isDefinition: false, scopeLine: 1031, flags: DIFlagPublic | DIFlagPrototyped, isOptimized: false)
!721 = !DISubprogram(name: "operator[]", linkageName: "_ZNKSt7__cxx1112basic_stringIcSt11char_traitsIcESaIcEEixEm", scope: !391, file: !395, line: 1046, type: !722, isLocal: false, isDefinition: false, scopeLine: 1046, flags: DIFlagPublic | DIFlagPrototyped, isOptimized: false)
!722 = !DISubroutineType(types: !723)
!723 = !{!724, !544, !397}
!724 = !DIDerivedType(tag: DW_TAG_typedef, name: "const_reference", scope: !391, file: !395, line: 91, baseType: !725)
!725 = !DIDerivedType(tag: DW_TAG_typedef, name: "const_reference", scope: !400, file: !399, line: 65, baseType: !726)
!726 = !DIDerivedType(tag: DW_TAG_reference_type, baseType: !727, size: 64)
!727 = !DIDerivedType(tag: DW_TAG_const_type, baseType: !728)
!728 = !DIDerivedType(tag: DW_TAG_typedef, name: "value_type", scope: !400, file: !399, line: 58, baseType: !729)
!729 = !DIDerivedType(tag: DW_TAG_typedef, name: "value_type", scope: !404, file: !405, line: 389, baseType: !217)
!730 = !DISubprogram(name: "operator[]", linkageName: "_ZNSt7__cxx1112basic_stringIcSt11char_traitsIcESaIcEEixEm", scope: !391, file: !395, line: 1063, type: !731, isLocal: false, isDefinition: false, scopeLine: 1063, flags: DIFlagPublic | DIFlagPrototyped, isOptimized: false)
!731 = !DISubroutineType(types: !732)
!732 = !{!733, !537, !397}
!733 = !DIDerivedType(tag: DW_TAG_typedef, name: "reference", scope: !391, file: !395, line: 90, baseType: !734)
!734 = !DIDerivedType(tag: DW_TAG_typedef, name: "reference", scope: !400, file: !399, line: 64, baseType: !735)
!735 = !DIDerivedType(tag: DW_TAG_reference_type, baseType: !728, size: 64)
!736 = !DISubprogram(name: "at", linkageName: "_ZNKSt7__cxx1112basic_stringIcSt11char_traitsIcESaIcEE2atEm", scope: !391, file: !395, line: 1084, type: !722, isLocal: false, isDefinition: false, scopeLine: 1084, flags: DIFlagPublic | DIFlagPrototyped, isOptimized: false)
!737 = !DISubprogram(name: "at", linkageName: "_ZNSt7__cxx1112basic_stringIcSt11char_traitsIcESaIcEE2atEm", scope: !391, file: !395, line: 1105, type: !731, isLocal: false, isDefinition: false, scopeLine: 1105, flags: DIFlagPublic | DIFlagPrototyped, isOptimized: false)
!738 = !DISubprogram(name: "front", linkageName: "_ZNSt7__cxx1112basic_stringIcSt11char_traitsIcESaIcEE5frontEv", scope: !391, file: !395, line: 1121, type: !739, isLocal: false, isDefinition: false, scopeLine: 1121, flags: DIFlagPublic | DIFlagPrototyped, isOptimized: false)
!739 = !DISubroutineType(types: !740)
!740 = !{!733, !537}
!741 = !DISubprogram(name: "front", linkageName: "_ZNKSt7__cxx1112basic_stringIcSt11char_traitsIcESaIcEE5frontEv", scope: !391, file: !395, line: 1132, type: !742, isLocal: false, isDefinition: false, scopeLine: 1132, flags: DIFlagPublic | DIFlagPrototyped, isOptimized: false)
!742 = !DISubroutineType(types: !743)
!743 = !{!724, !544}
!744 = !DISubprogram(name: "back", linkageName: "_ZNSt7__cxx1112basic_stringIcSt11char_traitsIcESaIcEE4backEv", scope: !391, file: !395, line: 1143, type: !739, isLocal: false, isDefinition: false, scopeLine: 1143, flags: DIFlagPublic | DIFlagPrototyped, isOptimized: false)
!745 = !DISubprogram(name: "back", linkageName: "_ZNKSt7__cxx1112basic_stringIcSt11char_traitsIcESaIcEE4backEv", scope: !391, file: !395, line: 1154, type: !742, isLocal: false, isDefinition: false, scopeLine: 1154, flags: DIFlagPublic | DIFlagPrototyped, isOptimized: false)
!746 = !DISubprogram(name: "operator+=", linkageName: "_ZNSt7__cxx1112basic_stringIcSt11char_traitsIcESaIcEEpLERKS4_", scope: !391, file: !395, line: 1168, type: !670, isLocal: false, isDefinition: false, scopeLine: 1168, flags: DIFlagPublic | DIFlagPrototyped, isOptimized: false)
!747 = !DISubprogram(name: "operator+=", linkageName: "_ZNSt7__cxx1112basic_stringIcSt11char_traitsIcESaIcEEpLEPKc", scope: !391, file: !395, line: 1177, type: !674, isLocal: false, isDefinition: false, scopeLine: 1177, flags: DIFlagPublic | DIFlagPrototyped, isOptimized: false)
!748 = !DISubprogram(name: "operator+=", linkageName: "_ZNSt7__cxx1112basic_stringIcSt11char_traitsIcESaIcEEpLEc", scope: !391, file: !395, line: 1186, type: !677, isLocal: false, isDefinition: false, scopeLine: 1186, flags: DIFlagPublic | DIFlagPrototyped, isOptimized: false)
!749 = !DISubprogram(name: "operator+=", linkageName: "_ZNSt7__cxx1112basic_stringIcSt11char_traitsIcESaIcEEpLESt16initializer_listIcE", scope: !391, file: !395, line: 1199, type: !683, isLocal: false, isDefinition: false, scopeLine: 1199, flags: DIFlagPublic | DIFlagPrototyped, isOptimized: false)
!750 = !DISubprogram(name: "append", linkageName: "_ZNSt7__cxx1112basic_stringIcSt11char_traitsIcESaIcEE6appendERKS4_", scope: !391, file: !395, line: 1221, type: !670, isLocal: false, isDefinition: false, scopeLine: 1221, flags: DIFlagPublic | DIFlagPrototyped, isOptimized: false)
!751 = !DISubprogram(name: "append", linkageName: "_ZNSt7__cxx1112basic_stringIcSt11char_traitsIcESaIcEE6appendERKS4_mm", scope: !391, file: !395, line: 1238, type: !752, isLocal: false, isDefinition: false, scopeLine: 1238, flags: DIFlagPublic | DIFlagPrototyped, isOptimized: false)
!752 = !DISubroutineType(types: !753)
!753 = !{!672, !537, !623, !397, !397}
!754 = !DISubprogram(name: "append", linkageName: "_ZNSt7__cxx1112basic_stringIcSt11char_traitsIcESaIcEE6appendEPKcm", scope: !391, file: !395, line: 1250, type: !755, isLocal: false, isDefinition: false, scopeLine: 1250, flags: DIFlagPublic | DIFlagPrototyped, isOptimized: false)
!755 = !DISubroutineType(types: !756)
!756 = !{!672, !537, !240, !397}
!757 = !DISubprogram(name: "append", linkageName: "_ZNSt7__cxx1112basic_stringIcSt11char_traitsIcESaIcEE6appendEPKc", scope: !391, file: !395, line: 1263, type: !674, isLocal: false, isDefinition: false, scopeLine: 1263, flags: DIFlagPublic | DIFlagPrototyped, isOptimized: false)
!758 = !DISubprogram(name: "append", linkageName: "_ZNSt7__cxx1112basic_stringIcSt11char_traitsIcESaIcEE6appendEmc", scope: !391, file: !395, line: 1280, type: !759, isLocal: false, isDefinition: false, scopeLine: 1280, flags: DIFlagPublic | DIFlagPrototyped, isOptimized: false)
!759 = !DISubroutineType(types: !760)
!760 = !{!672, !537, !397, !217}
!761 = !DISubprogram(name: "append", linkageName: "_ZNSt7__cxx1112basic_stringIcSt11char_traitsIcESaIcEE6appendESt16initializer_listIcE", scope: !391, file: !395, line: 1290, type: !683, isLocal: false, isDefinition: false, scopeLine: 1290, flags: DIFlagPublic | DIFlagPrototyped, isOptimized: false)
!762 = !DISubprogram(name: "push_back", linkageName: "_ZNSt7__cxx1112basic_stringIcSt11char_traitsIcESaIcEE9push_backEc", scope: !391, file: !395, line: 1349, type: !763, isLocal: false, isDefinition: false, scopeLine: 1349, flags: DIFlagPublic | DIFlagPrototyped, isOptimized: false)
!763 = !DISubroutineType(types: !764)
!764 = !{null, !537, !217}
!765 = !DISubprogram(name: "assign", linkageName: "_ZNSt7__cxx1112basic_stringIcSt11char_traitsIcESaIcEE6assignERKS4_", scope: !391, file: !395, line: 1364, type: !670, isLocal: false, isDefinition: false, scopeLine: 1364, flags: DIFlagPublic | DIFlagPrototyped, isOptimized: false)
!766 = !DISubprogram(name: "assign", linkageName: "_ZNSt7__cxx1112basic_stringIcSt11char_traitsIcESaIcEE6assignEOS4_", scope: !391, file: !395, line: 1380, type: !680, isLocal: false, isDefinition: false, scopeLine: 1380, flags: DIFlagPublic | DIFlagPrototyped, isOptimized: false)
!767 = !DISubprogram(name: "assign", linkageName: "_ZNSt7__cxx1112basic_stringIcSt11char_traitsIcESaIcEE6assignERKS4_mm", scope: !391, file: !395, line: 1403, type: !752, isLocal: false, isDefinition: false, scopeLine: 1403, flags: DIFlagPublic | DIFlagPrototyped, isOptimized: false)
!768 = !DISubprogram(name: "assign", linkageName: "_ZNSt7__cxx1112basic_stringIcSt11char_traitsIcESaIcEE6assignEPKcm", scope: !391, file: !395, line: 1419, type: !755, isLocal: false, isDefinition: false, scopeLine: 1419, flags: DIFlagPublic | DIFlagPrototyped, isOptimized: false)
!769 = !DISubprogram(name: "assign", linkageName: "_ZNSt7__cxx1112basic_stringIcSt11char_traitsIcESaIcEE6assignEPKc", scope: !391, file: !395, line: 1435, type: !674, isLocal: false, isDefinition: false, scopeLine: 1435, flags: DIFlagPublic | DIFlagPrototyped, isOptimized: false)
!770 = !DISubprogram(name: "assign", linkageName: "_ZNSt7__cxx1112basic_stringIcSt11char_traitsIcESaIcEE6assignEmc", scope: !391, file: !395, line: 1452, type: !759, isLocal: false, isDefinition: false, scopeLine: 1452, flags: DIFlagPublic | DIFlagPrototyped, isOptimized: false)
!771 = !DISubprogram(name: "assign", linkageName: "_ZNSt7__cxx1112basic_stringIcSt11char_traitsIcESaIcEE6assignESt16initializer_listIcE", scope: !391, file: !395, line: 1480, type: !683, isLocal: false, isDefinition: false, scopeLine: 1480, flags: DIFlagPublic | DIFlagPrototyped, isOptimized: false)
!772 = !DISubprogram(name: "insert", linkageName: "_ZNSt7__cxx1112basic_stringIcSt11char_traitsIcESaIcEE6insertEN9__gnu_cxx17__normal_iteratorIPKcS4_EEmc", scope: !391, file: !395, line: 1533, type: !773, isLocal: false, isDefinition: false, scopeLine: 1533, flags: DIFlagPublic | DIFlagPrototyped, isOptimized: false)
!773 = !DISubroutineType(types: !774)
!774 = !{!603, !537, !609, !397, !217}
!775 = !DISubprogram(name: "insert", linkageName: "_ZNSt7__cxx1112basic_stringIcSt11char_traitsIcESaIcEE6insertEN9__gnu_cxx17__normal_iteratorIPcS4_EESt16initializer_listIcE", scope: !391, file: !395, line: 1611, type: !776, isLocal: false, isDefinition: false, scopeLine: 1611, flags: DIFlagPublic | DIFlagPrototyped, isOptimized: false)
!776 = !DISubroutineType(types: !777)
!777 = !{null, !537, !603, !660}
!778 = !DISubprogram(name: "insert", linkageName: "_ZNSt7__cxx1112basic_stringIcSt11char_traitsIcESaIcEE6insertEmRKS4_", scope: !391, file: !395, line: 1631, type: !779, isLocal: false, isDefinition: false, scopeLine: 1631, flags: DIFlagPublic | DIFlagPrototyped, isOptimized: false)
!779 = !DISubroutineType(types: !780)
!780 = !{!672, !537, !397, !623}
!781 = !DISubprogram(name: "insert", linkageName: "_ZNSt7__cxx1112basic_stringIcSt11char_traitsIcESaIcEE6insertEmRKS4_mm", scope: !391, file: !395, line: 1654, type: !782, isLocal: false, isDefinition: false, scopeLine: 1654, flags: DIFlagPublic | DIFlagPrototyped, isOptimized: false)
!782 = !DISubroutineType(types: !783)
!783 = !{!672, !537, !397, !623, !397, !397}
!784 = !DISubprogram(name: "insert", linkageName: "_ZNSt7__cxx1112basic_stringIcSt11char_traitsIcESaIcEE6insertEmPKcm", scope: !391, file: !395, line: 1677, type: !785, isLocal: false, isDefinition: false, scopeLine: 1677, flags: DIFlagPublic | DIFlagPrototyped, isOptimized: false)
!785 = !DISubroutineType(types: !786)
!786 = !{!672, !537, !397, !240, !397}
!787 = !DISubprogram(name: "insert", linkageName: "_ZNSt7__cxx1112basic_stringIcSt11char_traitsIcESaIcEE6insertEmPKc", scope: !391, file: !395, line: 1696, type: !788, isLocal: false, isDefinition: false, scopeLine: 1696, flags: DIFlagPublic | DIFlagPrototyped, isOptimized: false)
!788 = !DISubroutineType(types: !789)
!789 = !{!672, !537, !397, !240}
!790 = !DISubprogram(name: "insert", linkageName: "_ZNSt7__cxx1112basic_stringIcSt11char_traitsIcESaIcEE6insertEmmc", scope: !391, file: !395, line: 1720, type: !791, isLocal: false, isDefinition: false, scopeLine: 1720, flags: DIFlagPublic | DIFlagPrototyped, isOptimized: false)
!791 = !DISubroutineType(types: !792)
!792 = !{!672, !537, !397, !397, !217}
!793 = !DISubprogram(name: "insert", linkageName: "_ZNSt7__cxx1112basic_stringIcSt11char_traitsIcESaIcEE6insertEN9__gnu_cxx17__normal_iteratorIPKcS4_EEc", scope: !391, file: !395, line: 1738, type: !794, isLocal: false, isDefinition: false, scopeLine: 1738, flags: DIFlagPublic | DIFlagPrototyped, isOptimized: false)
!794 = !DISubroutineType(types: !795)
!795 = !{!603, !537, !796, !217}
!796 = !DIDerivedType(tag: DW_TAG_typedef, name: "__const_iterator", scope: !391, file: !395, line: 108, baseType: !609)
!797 = !DISubprogram(name: "erase", linkageName: "_ZNSt7__cxx1112basic_stringIcSt11char_traitsIcESaIcEE5eraseEmm", scope: !391, file: !395, line: 1798, type: !798, isLocal: false, isDefinition: false, scopeLine: 1798, flags: DIFlagPublic | DIFlagPrototyped, isOptimized: false)
!798 = !DISubroutineType(types: !799)
!799 = !{!672, !537, !397, !397}
!800 = !DISubprogram(name: "erase", linkageName: "_ZNSt7__cxx1112basic_stringIcSt11char_traitsIcESaIcEE5eraseEN9__gnu_cxx17__normal_iteratorIPKcS4_EE", scope: !391, file: !395, line: 1817, type: !801, isLocal: false, isDefinition: false, scopeLine: 1817, flags: DIFlagPublic | DIFlagPrototyped, isOptimized: false)
!801 = !DISubroutineType(types: !802)
!802 = !{!603, !537, !796}
!803 = !DISubprogram(name: "erase", linkageName: "_ZNSt7__cxx1112basic_stringIcSt11char_traitsIcESaIcEE5eraseEN9__gnu_cxx17__normal_iteratorIPKcS4_EES9_", scope: !391, file: !395, line: 1836, type: !804, isLocal: false, isDefinition: false, scopeLine: 1836, flags: DIFlagPublic | DIFlagPrototyped, isOptimized: false)
!804 = !DISubroutineType(types: !805)
!805 = !{!603, !537, !796, !796}
!806 = !DISubprogram(name: "pop_back", linkageName: "_ZNSt7__cxx1112basic_stringIcSt11char_traitsIcESaIcEE8pop_backEv", scope: !391, file: !395, line: 1855, type: !565, isLocal: false, isDefinition: false, scopeLine: 1855, flags: DIFlagPublic | DIFlagPrototyped, isOptimized: false)
!807 = !DISubprogram(name: "replace", linkageName: "_ZNSt7__cxx1112basic_stringIcSt11char_traitsIcESaIcEE7replaceEmmRKS4_", scope: !391, file: !395, line: 1880, type: !808, isLocal: false, isDefinition: false, scopeLine: 1880, flags: DIFlagPublic | DIFlagPrototyped, isOptimized: false)
!808 = !DISubroutineType(types: !809)
!809 = !{!672, !537, !397, !397, !623}
!810 = !DISubprogram(name: "replace", linkageName: "_ZNSt7__cxx1112basic_stringIcSt11char_traitsIcESaIcEE7replaceEmmRKS4_mm", scope: !391, file: !395, line: 1902, type: !811, isLocal: false, isDefinition: false, scopeLine: 1902, flags: DIFlagPublic | DIFlagPrototyped, isOptimized: false)
!811 = !DISubroutineType(types: !812)
!812 = !{!672, !537, !397, !397, !623, !397, !397}
!813 = !DISubprogram(name: "replace", linkageName: "_ZNSt7__cxx1112basic_stringIcSt11char_traitsIcESaIcEE7replaceEmmPKcm", scope: !391, file: !395, line: 1927, type: !814, isLocal: false, isDefinition: false, scopeLine: 1927, flags: DIFlagPublic | DIFlagPrototyped, isOptimized: false)
!814 = !DISubroutineType(types: !815)
!815 = !{!672, !537, !397, !397, !240, !397}
!816 = !DISubprogram(name: "replace", linkageName: "_ZNSt7__cxx1112basic_stringIcSt11char_traitsIcESaIcEE7replaceEmmPKc", scope: !391, file: !395, line: 1952, type: !817, isLocal: false, isDefinition: false, scopeLine: 1952, flags: DIFlagPublic | DIFlagPrototyped, isOptimized: false)
!817 = !DISubroutineType(types: !818)
!818 = !{!672, !537, !397, !397, !240}
!819 = !DISubprogram(name: "replace", linkageName: "_ZNSt7__cxx1112basic_stringIcSt11char_traitsIcESaIcEE7replaceEmmmc", scope: !391, file: !395, line: 1976, type: !820, isLocal: false, isDefinition: false, scopeLine: 1976, flags: DIFlagPublic | DIFlagPrototyped, isOptimized: false)
!820 = !DISubroutineType(types: !821)
!821 = !{!672, !537, !397, !397, !397, !217}
!822 = !DISubprogram(name: "replace", linkageName: "_ZNSt7__cxx1112basic_stringIcSt11char_traitsIcESaIcEE7replaceEN9__gnu_cxx17__normal_iteratorIPKcS4_EES9_RKS4_", scope: !391, file: !395, line: 1994, type: !823, isLocal: false, isDefinition: false, scopeLine: 1994, flags: DIFlagPublic | DIFlagPrototyped, isOptimized: false)
!823 = !DISubroutineType(types: !824)
!824 = !{!672, !537, !796, !796, !623}
!825 = !DISubprogram(name: "replace", linkageName: "_ZNSt7__cxx1112basic_stringIcSt11char_traitsIcESaIcEE7replaceEN9__gnu_cxx17__normal_iteratorIPKcS4_EES9_S8_m", scope: !391, file: !395, line: 2014, type: !826, isLocal: false, isDefinition: false, scopeLine: 2014, flags: DIFlagPublic | DIFlagPrototyped, isOptimized: false)
!826 = !DISubroutineType(types: !827)
!827 = !{!672, !537, !796, !796, !240, !397}
!828 = !DISubprogram(name: "replace", linkageName: "_ZNSt7__cxx1112basic_stringIcSt11char_traitsIcESaIcEE7replaceEN9__gnu_cxx17__normal_iteratorIPKcS4_EES9_S8_", scope: !391, file: !395, line: 2036, type: !829, isLocal: false, isDefinition: false, scopeLine: 2036, flags: DIFlagPublic | DIFlagPrototyped, isOptimized: false)
!829 = !DISubroutineType(types: !830)
!830 = !{!672, !537, !796, !796, !240}
!831 = !DISubprogram(name: "replace", linkageName: "_ZNSt7__cxx1112basic_stringIcSt11char_traitsIcESaIcEE7replaceEN9__gnu_cxx17__normal_iteratorIPKcS4_EES9_mc", scope: !391, file: !395, line: 2057, type: !832, isLocal: false, isDefinition: false, scopeLine: 2057, flags: DIFlagPublic | DIFlagPrototyped, isOptimized: false)
!832 = !DISubroutineType(types: !833)
!833 = !{!672, !537, !796, !796, !397, !217}
!834 = !DISubprogram(name: "replace", linkageName: "_ZNSt7__cxx1112basic_stringIcSt11char_traitsIcESaIcEE7replaceEN9__gnu_cxx17__normal_iteratorIPKcS4_EES9_PcSA_", scope: !391, file: !395, line: 2114, type: !835, isLocal: false, isDefinition: false, scopeLine: 2114, flags: DIFlagPublic | DIFlagPrototyped, isOptimized: false)
!835 = !DISubroutineType(types: !836)
!836 = !{!672, !537, !796, !796, !296, !296}
!837 = !DISubprogram(name: "replace", linkageName: "_ZNSt7__cxx1112basic_stringIcSt11char_traitsIcESaIcEE7replaceEN9__gnu_cxx17__normal_iteratorIPKcS4_EES9_S8_S8_", scope: !391, file: !395, line: 2125, type: !838, isLocal: false, isDefinition: false, scopeLine: 2125, flags: DIFlagPublic | DIFlagPrototyped, isOptimized: false)
!838 = !DISubroutineType(types: !839)
!839 = !{!672, !537, !796, !796, !240, !240}
!840 = !DISubprogram(name: "replace", linkageName: "_ZNSt7__cxx1112basic_stringIcSt11char_traitsIcESaIcEE7replaceEN9__gnu_cxx17__normal_iteratorIPKcS4_EES9_NS6_IPcS4_EESB_", scope: !391, file: !395, line: 2136, type: !841, isLocal: false, isDefinition: false, scopeLine: 2136, flags: DIFlagPublic | DIFlagPrototyped, isOptimized: false)
!841 = !DISubroutineType(types: !842)
!842 = !{!672, !537, !796, !796, !603, !603}
!843 = !DISubprogram(name: "replace", linkageName: "_ZNSt7__cxx1112basic_stringIcSt11char_traitsIcESaIcEE7replaceEN9__gnu_cxx17__normal_iteratorIPKcS4_EES9_S9_S9_", scope: !391, file: !395, line: 2147, type: !844, isLocal: false, isDefinition: false, scopeLine: 2147, flags: DIFlagPublic | DIFlagPrototyped, isOptimized: false)
!844 = !DISubroutineType(types: !845)
!845 = !{!672, !537, !796, !796, !609, !609}
!846 = !DISubprogram(name: "replace", linkageName: "_ZNSt7__cxx1112basic_stringIcSt11char_traitsIcESaIcEE7replaceEN9__gnu_cxx17__normal_iteratorIPKcS4_EES9_St16initializer_listIcE", scope: !391, file: !395, line: 2172, type: !847, isLocal: false, isDefinition: false, scopeLine: 2172, flags: DIFlagPublic | DIFlagPrototyped, isOptimized: false)
!847 = !DISubroutineType(types: !848)
!848 = !{!672, !537, !609, !609, !660}
!849 = !DISubprogram(name: "_M_replace_aux", linkageName: "_ZNSt7__cxx1112basic_stringIcSt11char_traitsIcESaIcEE14_M_replace_auxEmmmc", scope: !391, file: !395, line: 2245, type: !820, isLocal: false, isDefinition: false, scopeLine: 2245, flags: DIFlagPrototyped, isOptimized: false)
!850 = !DISubprogram(name: "_M_replace", linkageName: "_ZNSt7__cxx1112basic_stringIcSt11char_traitsIcESaIcEE10_M_replaceEmmPKcm", scope: !391, file: !395, line: 2249, type: !851, isLocal: false, isDefinition: false, scopeLine: 2249, flags: DIFlagPrototyped, isOptimized: false)
!851 = !DISubroutineType(types: !852)
!852 = !{!672, !537, !397, !397, !240, !396}
!853 = !DISubprogram(name: "_M_append", linkageName: "_ZNSt7__cxx1112basic_stringIcSt11char_traitsIcESaIcEE9_M_appendEPKcm", scope: !391, file: !395, line: 2253, type: !755, isLocal: false, isDefinition: false, scopeLine: 2253, flags: DIFlagPrototyped, isOptimized: false)
!854 = !DISubprogram(name: "copy", linkageName: "_ZNKSt7__cxx1112basic_stringIcSt11char_traitsIcESaIcEE4copyEPcmm", scope: !391, file: !395, line: 2270, type: !855, isLocal: false, isDefinition: false, scopeLine: 2270, flags: DIFlagPublic | DIFlagPrototyped, isOptimized: false)
!855 = !DISubroutineType(types: !856)
!856 = !{!397, !544, !296, !397, !397}
!857 = !DISubprogram(name: "swap", linkageName: "_ZNSt7__cxx1112basic_stringIcSt11char_traitsIcESaIcEE4swapERS4_", scope: !391, file: !395, line: 2280, type: !858, isLocal: false, isDefinition: false, scopeLine: 2280, flags: DIFlagPublic | DIFlagPrototyped, isOptimized: false)
!858 = !DISubroutineType(types: !859)
!859 = !{null, !537, !672}
!860 = !DISubprogram(name: "c_str", linkageName: "_ZNKSt7__cxx1112basic_stringIcSt11char_traitsIcESaIcEE5c_strEv", scope: !391, file: !395, line: 2290, type: !861, isLocal: false, isDefinition: false, scopeLine: 2290, flags: DIFlagPublic | DIFlagPrototyped, isOptimized: false)
!861 = !DISubroutineType(types: !862)
!862 = !{!240, !544}
!863 = !DISubprogram(name: "data", linkageName: "_ZNKSt7__cxx1112basic_stringIcSt11char_traitsIcESaIcEE4dataEv", scope: !391, file: !395, line: 2302, type: !861, isLocal: false, isDefinition: false, scopeLine: 2302, flags: DIFlagPublic | DIFlagPrototyped, isOptimized: false)
!864 = !DISubprogram(name: "get_allocator", linkageName: "_ZNKSt7__cxx1112basic_stringIcSt11char_traitsIcESaIcEE13get_allocatorEv", scope: !391, file: !395, line: 2321, type: !865, isLocal: false, isDefinition: false, scopeLine: 2321, flags: DIFlagPublic | DIFlagPrototyped, isOptimized: false)
!865 = !DISubroutineType(types: !866)
!866 = !{!509, !544}
!867 = !DISubprogram(name: "find", linkageName: "_ZNKSt7__cxx1112basic_stringIcSt11char_traitsIcESaIcEE4findEPKcmm", scope: !391, file: !395, line: 2337, type: !868, isLocal: false, isDefinition: false, scopeLine: 2337, flags: DIFlagPublic | DIFlagPrototyped, isOptimized: false)
!868 = !DISubroutineType(types: !869)
!869 = !{!397, !544, !240, !397, !397}
!870 = !DISubprogram(name: "find", linkageName: "_ZNKSt7__cxx1112basic_stringIcSt11char_traitsIcESaIcEE4findERKS4_m", scope: !391, file: !395, line: 2351, type: !871, isLocal: false, isDefinition: false, scopeLine: 2351, flags: DIFlagPublic | DIFlagPrototyped, isOptimized: false)
!871 = !DISubroutineType(types: !872)
!872 = !{!397, !544, !623, !397}
!873 = !DISubprogram(name: "find", linkageName: "_ZNKSt7__cxx1112basic_stringIcSt11char_traitsIcESaIcEE4findEPKcm", scope: !391, file: !395, line: 2383, type: !874, isLocal: false, isDefinition: false, scopeLine: 2383, flags: DIFlagPublic | DIFlagPrototyped, isOptimized: false)
!874 = !DISubroutineType(types: !875)
!875 = !{!397, !544, !240, !397}
!876 = !DISubprogram(name: "find", linkageName: "_ZNKSt7__cxx1112basic_stringIcSt11char_traitsIcESaIcEE4findEcm", scope: !391, file: !395, line: 2400, type: !877, isLocal: false, isDefinition: false, scopeLine: 2400, flags: DIFlagPublic | DIFlagPrototyped, isOptimized: false)
!877 = !DISubroutineType(types: !878)
!878 = !{!397, !544, !217, !397}
!879 = !DISubprogram(name: "rfind", linkageName: "_ZNKSt7__cxx1112basic_stringIcSt11char_traitsIcESaIcEE5rfindERKS4_m", scope: !391, file: !395, line: 2413, type: !871, isLocal: false, isDefinition: false, scopeLine: 2413, flags: DIFlagPublic | DIFlagPrototyped, isOptimized: false)
!880 = !DISubprogram(name: "rfind", linkageName: "_ZNKSt7__cxx1112basic_stringIcSt11char_traitsIcESaIcEE5rfindEPKcmm", scope: !391, file: !395, line: 2447, type: !868, isLocal: false, isDefinition: false, scopeLine: 2447, flags: DIFlagPublic | DIFlagPrototyped, isOptimized: false)
!881 = !DISubprogram(name: "rfind", linkageName: "_ZNKSt7__cxx1112basic_stringIcSt11char_traitsIcESaIcEE5rfindEPKcm", scope: !391, file: !395, line: 2461, type: !874, isLocal: false, isDefinition: false, scopeLine: 2461, flags: DIFlagPublic | DIFlagPrototyped, isOptimized: false)
!882 = !DISubprogram(name: "rfind", linkageName: "_ZNKSt7__cxx1112basic_stringIcSt11char_traitsIcESaIcEE5rfindEcm", scope: !391, file: !395, line: 2478, type: !877, isLocal: false, isDefinition: false, scopeLine: 2478, flags: DIFlagPublic | DIFlagPrototyped, isOptimized: false)
!883 = !DISubprogram(name: "find_first_of", linkageName: "_ZNKSt7__cxx1112basic_stringIcSt11char_traitsIcESaIcEE13find_first_ofERKS4_m", scope: !391, file: !395, line: 2492, type: !871, isLocal: false, isDefinition: false, scopeLine: 2492, flags: DIFlagPublic | DIFlagPrototyped, isOptimized: false)
!884 = !DISubprogram(name: "find_first_of", linkageName: "_ZNKSt7__cxx1112basic_stringIcSt11char_traitsIcESaIcEE13find_first_ofEPKcmm", scope: !391, file: !395, line: 2527, type: !868, isLocal: false, isDefinition: false, scopeLine: 2527, flags: DIFlagPublic | DIFlagPrototyped, isOptimized: false)
!885 = !DISubprogram(name: "find_first_of", linkageName: "_ZNKSt7__cxx1112basic_stringIcSt11char_traitsIcESaIcEE13find_first_ofEPKcm", scope: !391, file: !395, line: 2541, type: !874, isLocal: false, isDefinition: false, scopeLine: 2541, flags: DIFlagPublic | DIFlagPrototyped, isOptimized: false)
!886 = !DISubprogram(name: "find_first_of", linkageName: "_ZNKSt7__cxx1112basic_stringIcSt11char_traitsIcESaIcEE13find_first_ofEcm", scope: !391, file: !395, line: 2561, type: !877, isLocal: false, isDefinition: false, scopeLine: 2561, flags: DIFlagPublic | DIFlagPrototyped, isOptimized: false)
!887 = !DISubprogram(name: "find_last_of", linkageName: "_ZNKSt7__cxx1112basic_stringIcSt11char_traitsIcESaIcEE12find_last_ofERKS4_m", scope: !391, file: !395, line: 2576, type: !871, isLocal: false, isDefinition: false, scopeLine: 2576, flags: DIFlagPublic | DIFlagPrototyped, isOptimized: false)
!888 = !DISubprogram(name: "find_last_of", linkageName: "_ZNKSt7__cxx1112basic_stringIcSt11char_traitsIcESaIcEE12find_last_ofEPKcmm", scope: !391, file: !395, line: 2611, type: !868, isLocal: false, isDefinition: false, scopeLine: 2611, flags: DIFlagPublic | DIFlagPrototyped, isOptimized: false)
!889 = !DISubprogram(name: "find_last_of", linkageName: "_ZNKSt7__cxx1112basic_stringIcSt11char_traitsIcESaIcEE12find_last_ofEPKcm", scope: !391, file: !395, line: 2625, type: !874, isLocal: false, isDefinition: false, scopeLine: 2625, flags: DIFlagPublic | DIFlagPrototyped, isOptimized: false)
!890 = !DISubprogram(name: "find_last_of", linkageName: "_ZNKSt7__cxx1112basic_stringIcSt11char_traitsIcESaIcEE12find_last_ofEcm", scope: !391, file: !395, line: 2645, type: !877, isLocal: false, isDefinition: false, scopeLine: 2645, flags: DIFlagPublic | DIFlagPrototyped, isOptimized: false)
!891 = !DISubprogram(name: "find_first_not_of", linkageName: "_ZNKSt7__cxx1112basic_stringIcSt11char_traitsIcESaIcEE17find_first_not_ofERKS4_m", scope: !391, file: !395, line: 2659, type: !871, isLocal: false, isDefinition: false, scopeLine: 2659, flags: DIFlagPublic | DIFlagPrototyped, isOptimized: false)
!892 = !DISubprogram(name: "find_first_not_of", linkageName: "_ZNKSt7__cxx1112basic_stringIcSt11char_traitsIcESaIcEE17find_first_not_ofEPKcmm", scope: !391, file: !395, line: 2694, type: !868, isLocal: false, isDefinition: false, scopeLine: 2694, flags: DIFlagPublic | DIFlagPrototyped, isOptimized: false)
!893 = !DISubprogram(name: "find_first_not_of", linkageName: "_ZNKSt7__cxx1112basic_stringIcSt11char_traitsIcESaIcEE17find_first_not_ofEPKcm", scope: !391, file: !395, line: 2708, type: !874, isLocal: false, isDefinition: false, scopeLine: 2708, flags: DIFlagPublic | DIFlagPrototyped, isOptimized: false)
!894 = !DISubprogram(name: "find_first_not_of", linkageName: "_ZNKSt7__cxx1112basic_stringIcSt11char_traitsIcESaIcEE17find_first_not_ofEcm", scope: !391, file: !395, line: 2726, type: !877, isLocal: false, isDefinition: false, scopeLine: 2726, flags: DIFlagPublic | DIFlagPrototyped, isOptimized: false)
!895 = !DISubprogram(name: "find_last_not_of", linkageName: "_ZNKSt7__cxx1112basic_stringIcSt11char_traitsIcESaIcEE16find_last_not_ofERKS4_m", scope: !391, file: !395, line: 2741, type: !871, isLocal: false, isDefinition: false, scopeLine: 2741, flags: DIFlagPublic | DIFlagPrototyped, isOptimized: false)
!896 = !DISubprogram(name: "find_last_not_of", linkageName: "_ZNKSt7__cxx1112basic_stringIcSt11char_traitsIcESaIcEE16find_last_not_ofEPKcmm", scope: !391, file: !395, line: 2776, type: !868, isLocal: false, isDefinition: false, scopeLine: 2776, flags: DIFlagPublic | DIFlagPrototyped, isOptimized: false)
!897 = !DISubprogram(name: "find_last_not_of", linkageName: "_ZNKSt7__cxx1112basic_stringIcSt11char_traitsIcESaIcEE16find_last_not_ofEPKcm", scope: !391, file: !395, line: 2790, type: !874, isLocal: false, isDefinition: false, scopeLine: 2790, flags: DIFlagPublic | DIFlagPrototyped, isOptimized: false)
!898 = !DISubprogram(name: "find_last_not_of", linkageName: "_ZNKSt7__cxx1112basic_stringIcSt11char_traitsIcESaIcEE16find_last_not_ofEcm", scope: !391, file: !395, line: 2808, type: !877, isLocal: false, isDefinition: false, scopeLine: 2808, flags: DIFlagPublic | DIFlagPrototyped, isOptimized: false)
!899 = !DISubprogram(name: "substr", linkageName: "_ZNKSt7__cxx1112basic_stringIcSt11char_traitsIcESaIcEE6substrEmm", scope: !391, file: !395, line: 2824, type: !900, isLocal: false, isDefinition: false, scopeLine: 2824, flags: DIFlagPublic | DIFlagPrototyped, isOptimized: false)
!900 = !DISubroutineType(types: !901)
!901 = !{!391, !544, !397, !397}
!902 = !DISubprogram(name: "compare", linkageName: "_ZNKSt7__cxx1112basic_stringIcSt11char_traitsIcESaIcEE7compareERKS4_", scope: !391, file: !395, line: 2843, type: !903, isLocal: false, isDefinition: false, scopeLine: 2843, flags: DIFlagPublic | DIFlagPrototyped, isOptimized: false)
!903 = !DISubroutineType(types: !904)
!904 = !{!91, !544, !623}
!905 = !DISubprogram(name: "compare", linkageName: "_ZNKSt7__cxx1112basic_stringIcSt11char_traitsIcESaIcEE7compareEmmRKS4_", scope: !391, file: !395, line: 2936, type: !906, isLocal: false, isDefinition: false, scopeLine: 2936, flags: DIFlagPublic | DIFlagPrototyped, isOptimized: false)
!906 = !DISubroutineType(types: !907)
!907 = !{!91, !544, !397, !397, !623}
!908 = !DISubprogram(name: "compare", linkageName: "_ZNKSt7__cxx1112basic_stringIcSt11char_traitsIcESaIcEE7compareEmmRKS4_mm", scope: !391, file: !395, line: 2962, type: !909, isLocal: false, isDefinition: false, scopeLine: 2962, flags: DIFlagPublic | DIFlagPrototyped, isOptimized: false)
!909 = !DISubroutineType(types: !910)
!910 = !{!91, !544, !397, !397, !623, !397, !397}
!911 = !DISubprogram(name: "compare", linkageName: "_ZNKSt7__cxx1112basic_stringIcSt11char_traitsIcESaIcEE7compareEPKc", scope: !391, file: !395, line: 2980, type: !912, isLocal: false, isDefinition: false, scopeLine: 2980, flags: DIFlagPublic | DIFlagPrototyped, isOptimized: false)
!912 = !DISubroutineType(types: !913)
!913 = !{!91, !544, !240}
!914 = !DISubprogram(name: "compare", linkageName: "_ZNKSt7__cxx1112basic_stringIcSt11char_traitsIcESaIcEE7compareEmmPKc", scope: !391, file: !395, line: 3004, type: !915, isLocal: false, isDefinition: false, scopeLine: 3004, flags: DIFlagPublic | DIFlagPrototyped, isOptimized: false)
!915 = !DISubroutineType(types: !916)
!916 = !{!91, !544, !397, !397, !240}
!917 = !DISubprogram(name: "compare", linkageName: "_ZNKSt7__cxx1112basic_stringIcSt11char_traitsIcESaIcEE7compareEmmPKcm", scope: !391, file: !395, line: 3031, type: !918, isLocal: false, isDefinition: false, scopeLine: 3031, flags: DIFlagPublic | DIFlagPrototyped, isOptimized: false)
!918 = !DISubroutineType(types: !919)
!919 = !{!91, !544, !397, !397, !240, !397}
!920 = !{!921, !922, !489}
!921 = !DITemplateTypeParameter(name: "_CharT", type: !217)
!922 = !DITemplateTypeParameter(name: "_Traits", type: !923)
!923 = distinct !DICompositeType(tag: DW_TAG_structure_type, name: "char_traits<char>", scope: !34, file: !924, line: 277, size: 8, flags: DIFlagTypePassByValue, elements: !925, templateParams: !973, identifier: "_ZTSSt11char_traitsIcE")
!924 = !DIFile(filename: "C:/Xilinx/Vitis_HLS/2023.2/tps/mingw/8.3.0/win64.o/nt\5Clib\5Cgcc\5Cx86_64-w64-mingw32\5C8.3.0\5Cinclude\5Cc++\5Cbits/char_traits.h", directory: "C:\5CVitis_Libraries\5Cquantitative_finance\5CL1\5Ctests\5Cpca")
!925 = !{!926, !933, !936, !937, !941, !944, !947, !951, !952, !955, !961, !964, !967, !970}
!926 = !DISubprogram(name: "assign", linkageName: "_ZNSt11char_traitsIcE6assignERcRKc", scope: !923, file: !924, line: 286, type: !927, isLocal: false, isDefinition: false, scopeLine: 286, flags: DIFlagPrototyped | DIFlagStaticMember, isOptimized: false)
!927 = !DISubroutineType(types: !928)
!928 = !{null, !929, !931}
!929 = !DIDerivedType(tag: DW_TAG_reference_type, baseType: !930, size: 64)
!930 = !DIDerivedType(tag: DW_TAG_typedef, name: "char_type", scope: !923, file: !924, line: 279, baseType: !217)
!931 = !DIDerivedType(tag: DW_TAG_reference_type, baseType: !932, size: 64)
!932 = !DIDerivedType(tag: DW_TAG_const_type, baseType: !930)
!933 = !DISubprogram(name: "eq", linkageName: "_ZNSt11char_traitsIcE2eqERKcS2_", scope: !923, file: !924, line: 290, type: !934, isLocal: false, isDefinition: false, scopeLine: 290, flags: DIFlagPrototyped | DIFlagStaticMember, isOptimized: false)
!934 = !DISubroutineType(types: !935)
!935 = !{!335, !931, !931}
!936 = !DISubprogram(name: "lt", linkageName: "_ZNSt11char_traitsIcE2ltERKcS2_", scope: !923, file: !924, line: 294, type: !934, isLocal: false, isDefinition: false, scopeLine: 294, flags: DIFlagPrototyped | DIFlagStaticMember, isOptimized: false)
!937 = !DISubprogram(name: "compare", linkageName: "_ZNSt11char_traitsIcE7compareEPKcS2_m", scope: !923, file: !924, line: 302, type: !938, isLocal: false, isDefinition: false, scopeLine: 302, flags: DIFlagPrototyped | DIFlagStaticMember, isOptimized: false)
!938 = !DISubroutineType(types: !939)
!939 = !{!91, !940, !940, !231}
!940 = !DIDerivedType(tag: DW_TAG_pointer_type, baseType: !932, size: 64)
!941 = !DISubprogram(name: "length", linkageName: "_ZNSt11char_traitsIcE6lengthEPKc", scope: !923, file: !924, line: 316, type: !942, isLocal: false, isDefinition: false, scopeLine: 316, flags: DIFlagPrototyped | DIFlagStaticMember, isOptimized: false)
!942 = !DISubroutineType(types: !943)
!943 = !{!231, !940}
!944 = !DISubprogram(name: "find", linkageName: "_ZNSt11char_traitsIcE4findEPKcmRS1_", scope: !923, file: !924, line: 326, type: !945, isLocal: false, isDefinition: false, scopeLine: 326, flags: DIFlagPrototyped | DIFlagStaticMember, isOptimized: false)
!945 = !DISubroutineType(types: !946)
!946 = !{!940, !940, !231, !931}
!947 = !DISubprogram(name: "move", linkageName: "_ZNSt11char_traitsIcE4moveEPcPKcm", scope: !923, file: !924, line: 340, type: !948, isLocal: false, isDefinition: false, scopeLine: 340, flags: DIFlagPrototyped | DIFlagStaticMember, isOptimized: false)
!948 = !DISubroutineType(types: !949)
!949 = !{!950, !950, !940, !231}
!950 = !DIDerivedType(tag: DW_TAG_pointer_type, baseType: !930, size: 64)
!951 = !DISubprogram(name: "copy", linkageName: "_ZNSt11char_traitsIcE4copyEPcPKcm", scope: !923, file: !924, line: 348, type: !948, isLocal: false, isDefinition: false, scopeLine: 348, flags: DIFlagPrototyped | DIFlagStaticMember, isOptimized: false)
!952 = !DISubprogram(name: "assign", linkageName: "_ZNSt11char_traitsIcE6assignEPcmc", scope: !923, file: !924, line: 356, type: !953, isLocal: false, isDefinition: false, scopeLine: 356, flags: DIFlagPrototyped | DIFlagStaticMember, isOptimized: false)
!953 = !DISubroutineType(types: !954)
!954 = !{!950, !950, !231, !930}
!955 = !DISubprogram(name: "to_char_type", linkageName: "_ZNSt11char_traitsIcE12to_char_typeERKi", scope: !923, file: !924, line: 364, type: !956, isLocal: false, isDefinition: false, scopeLine: 364, flags: DIFlagPrototyped | DIFlagStaticMember, isOptimized: false)
!956 = !DISubroutineType(types: !957)
!957 = !{!930, !958}
!958 = !DIDerivedType(tag: DW_TAG_reference_type, baseType: !959, size: 64)
!959 = !DIDerivedType(tag: DW_TAG_const_type, baseType: !960)
!960 = !DIDerivedType(tag: DW_TAG_typedef, name: "int_type", scope: !923, file: !924, line: 280, baseType: !91)
!961 = !DISubprogram(name: "to_int_type", linkageName: "_ZNSt11char_traitsIcE11to_int_typeERKc", scope: !923, file: !924, line: 370, type: !962, isLocal: false, isDefinition: false, scopeLine: 370, flags: DIFlagPrototyped | DIFlagStaticMember, isOptimized: false)
!962 = !DISubroutineType(types: !963)
!963 = !{!960, !931}
!964 = !DISubprogram(name: "eq_int_type", linkageName: "_ZNSt11char_traitsIcE11eq_int_typeERKiS2_", scope: !923, file: !924, line: 374, type: !965, isLocal: false, isDefinition: false, scopeLine: 374, flags: DIFlagPrototyped | DIFlagStaticMember, isOptimized: false)
!965 = !DISubroutineType(types: !966)
!966 = !{!335, !958, !958}
!967 = !DISubprogram(name: "eof", linkageName: "_ZNSt11char_traitsIcE3eofEv", scope: !923, file: !924, line: 378, type: !968, isLocal: false, isDefinition: false, scopeLine: 378, flags: DIFlagPrototyped | DIFlagStaticMember, isOptimized: false)
!968 = !DISubroutineType(types: !969)
!969 = !{!960}
!970 = !DISubprogram(name: "not_eof", linkageName: "_ZNSt11char_traitsIcE7not_eofERKi", scope: !923, file: !924, line: 382, type: !971, isLocal: false, isDefinition: false, scopeLine: 382, flags: DIFlagPrototyped | DIFlagStaticMember, isOptimized: false)
!971 = !DISubroutineType(types: !972)
!972 = !{!960, !958}
!973 = !{!921}
!974 = !DISubprogram(name: "locale", scope: !184, file: !185, line: 177, type: !975, isLocal: false, isDefinition: false, scopeLine: 177, flags: DIFlagPublic | DIFlagPrototyped, isOptimized: false)
!975 = !DISubroutineType(types: !976)
!976 = !{null, !371, !375, !386, !189}
!977 = !DISubprogram(name: "locale", scope: !184, file: !185, line: 192, type: !978, isLocal: false, isDefinition: false, scopeLine: 192, flags: DIFlagPublic | DIFlagPrototyped, isOptimized: false)
!978 = !DISubroutineType(types: !979)
!979 = !{null, !371, !375, !375, !189}
!980 = !DISubprogram(name: "~locale", scope: !184, file: !185, line: 209, type: !369, isLocal: false, isDefinition: false, scopeLine: 209, flags: DIFlagPublic | DIFlagPrototyped, isOptimized: false)
!981 = !DISubprogram(name: "operator=", linkageName: "_ZNSt6localeaSERKS_", scope: !184, file: !185, line: 220, type: !982, isLocal: false, isDefinition: false, scopeLine: 220, flags: DIFlagPublic | DIFlagPrototyped, isOptimized: false)
!982 = !DISubroutineType(types: !983)
!983 = !{!375, !371, !375}
!984 = !DISubprogram(name: "name", linkageName: "_ZNKSt6locale4nameB5cxx11Ev", scope: !184, file: !185, line: 245, type: !985, isLocal: false, isDefinition: false, scopeLine: 245, flags: DIFlagPublic | DIFlagPrototyped, isOptimized: false)
!985 = !DISubroutineType(types: !986)
!986 = !{!388, !987}
!987 = !DIDerivedType(tag: DW_TAG_pointer_type, baseType: !376, size: 64, flags: DIFlagArtificial | DIFlagObjectPointer)
!988 = !DISubprogram(name: "operator==", linkageName: "_ZNKSt6localeeqERKS_", scope: !184, file: !185, line: 255, type: !989, isLocal: false, isDefinition: false, scopeLine: 255, flags: DIFlagPublic | DIFlagPrototyped, isOptimized: false)
!989 = !DISubroutineType(types: !990)
!990 = !{!335, !987, !375}
!991 = !DISubprogram(name: "operator!=", linkageName: "_ZNKSt6localeneERKS_", scope: !184, file: !185, line: 264, type: !989, isLocal: false, isDefinition: false, scopeLine: 264, flags: DIFlagPublic | DIFlagPrototyped, isOptimized: false)
!992 = !DISubprogram(name: "global", linkageName: "_ZNSt6locale6globalERKS_", scope: !184, file: !185, line: 299, type: !993, isLocal: false, isDefinition: false, scopeLine: 299, flags: DIFlagPublic | DIFlagPrototyped | DIFlagStaticMember, isOptimized: false)
!993 = !DISubroutineType(types: !994)
!994 = !{!184, !375}
!995 = !DISubprogram(name: "classic", linkageName: "_ZNSt6locale7classicEv", scope: !184, file: !185, line: 305, type: !996, isLocal: false, isDefinition: false, scopeLine: 305, flags: DIFlagPublic | DIFlagPrototyped | DIFlagStaticMember, isOptimized: false)
!996 = !DISubroutineType(types: !997)
!997 = !{!375}
!998 = !DISubprogram(name: "locale", scope: !184, file: !185, line: 340, type: !999, isLocal: false, isDefinition: false, scopeLine: 340, flags: DIFlagExplicit | DIFlagPrototyped, isOptimized: false)
!999 = !DISubroutineType(types: !1000)
!1000 = !{null, !371, !198}
!1001 = !DISubprogram(name: "_S_initialize", linkageName: "_ZNSt6locale13_S_initializeEv", scope: !184, file: !185, line: 343, type: !225, isLocal: false, isDefinition: false, scopeLine: 343, flags: DIFlagPrototyped | DIFlagStaticMember, isOptimized: false)
!1002 = !DISubprogram(name: "_S_initialize_once", linkageName: "_ZNSt6locale18_S_initialize_onceEv", scope: !184, file: !185, line: 346, type: !225, isLocal: false, isDefinition: false, scopeLine: 346, flags: DIFlagPrototyped | DIFlagStaticMember, isOptimized: false)
!1003 = !DISubprogram(name: "_S_normalize_category", linkageName: "_ZNSt6locale21_S_normalize_categoryEi", scope: !184, file: !185, line: 349, type: !1004, isLocal: false, isDefinition: false, scopeLine: 349, flags: DIFlagPrototyped | DIFlagStaticMember, isOptimized: false)
!1004 = !DISubroutineType(types: !1005)
!1005 = !{!189, !189}
!1006 = !DISubprogram(name: "_M_coalesce", linkageName: "_ZNSt6locale11_M_coalesceERKS_S1_i", scope: !184, file: !185, line: 352, type: !978, isLocal: false, isDefinition: false, scopeLine: 352, flags: DIFlagPrototyped, isOptimized: false)
!1007 = !DISubprogram(name: "register_callback", linkageName: "_ZNSt8ios_base17register_callbackEPFvNS_5eventERS_iEi", scope: !84, file: !33, line: 519, type: !1008, isLocal: false, isDefinition: false, scopeLine: 519, flags: DIFlagPublic | DIFlagPrototyped, isOptimized: false)
!1008 = !DISubroutineType(types: !1009)
!1009 = !{null, !1010, !147, !91}
!1010 = !DIDerivedType(tag: DW_TAG_pointer_type, baseType: !84, size: 64, flags: DIFlagArtificial | DIFlagObjectPointer)
!1011 = !DISubprogram(name: "_M_call_callbacks", linkageName: "_ZNSt8ios_base17_M_call_callbacksENS_5eventE", scope: !84, file: !33, line: 563, type: !1012, isLocal: false, isDefinition: false, scopeLine: 563, flags: DIFlagProtected | DIFlagPrototyped, isOptimized: false)
!1012 = !DISubroutineType(types: !1013)
!1013 = !{null, !1010, !83}
!1014 = !DISubprogram(name: "_M_dispose_callbacks", linkageName: "_ZNSt8ios_base20_M_dispose_callbacksEv", scope: !84, file: !33, line: 566, type: !1015, isLocal: false, isDefinition: false, scopeLine: 566, flags: DIFlagProtected | DIFlagPrototyped, isOptimized: false)
!1015 = !DISubroutineType(types: !1016)
!1016 = !{null, !1010}
!1017 = !DISubprogram(name: "_M_grow_words", linkageName: "_ZNSt8ios_base13_M_grow_wordsEib", scope: !84, file: !33, line: 589, type: !1018, isLocal: false, isDefinition: false, scopeLine: 589, flags: DIFlagProtected | DIFlagPrototyped, isOptimized: false)
!1018 = !DISubroutineType(types: !1019)
!1019 = !{!1020, !1010, !91, !335}
!1020 = !DIDerivedType(tag: DW_TAG_reference_type, baseType: !167, size: 64)
!1021 = !DISubprogram(name: "_M_init", linkageName: "_ZNSt8ios_base7_M_initEv", scope: !84, file: !33, line: 595, type: !1015, isLocal: false, isDefinition: false, scopeLine: 595, flags: DIFlagProtected | DIFlagPrototyped, isOptimized: false)
!1022 = !DISubprogram(name: "flags", linkageName: "_ZNKSt8ios_base5flagsEv", scope: !84, file: !33, line: 621, type: !1023, isLocal: false, isDefinition: false, scopeLine: 621, flags: DIFlagPublic | DIFlagPrototyped, isOptimized: false)
!1023 = !DISubroutineType(types: !1024)
!1024 = !{!94, !1025}
!1025 = !DIDerivedType(tag: DW_TAG_pointer_type, baseType: !1026, size: 64, flags: DIFlagArtificial | DIFlagObjectPointer)
!1026 = !DIDerivedType(tag: DW_TAG_const_type, baseType: !84)
!1027 = !DISubprogram(name: "flags", linkageName: "_ZNSt8ios_base5flagsESt13_Ios_Fmtflags", scope: !84, file: !33, line: 632, type: !1028, isLocal: false, isDefinition: false, scopeLine: 632, flags: DIFlagPublic | DIFlagPrototyped, isOptimized: false)
!1028 = !DISubroutineType(types: !1029)
!1029 = !{!94, !1010, !94}
!1030 = !DISubprogram(name: "setf", linkageName: "_ZNSt8ios_base4setfESt13_Ios_Fmtflags", scope: !84, file: !33, line: 648, type: !1028, isLocal: false, isDefinition: false, scopeLine: 648, flags: DIFlagPublic | DIFlagPrototyped, isOptimized: false)
!1031 = !DISubprogram(name: "setf", linkageName: "_ZNSt8ios_base4setfESt13_Ios_FmtflagsS0_", scope: !84, file: !33, line: 665, type: !1032, isLocal: false, isDefinition: false, scopeLine: 665, flags: DIFlagPublic | DIFlagPrototyped, isOptimized: false)
!1032 = !DISubroutineType(types: !1033)
!1033 = !{!94, !1010, !94, !94}
!1034 = !DISubprogram(name: "unsetf", linkageName: "_ZNSt8ios_base6unsetfESt13_Ios_Fmtflags", scope: !84, file: !33, line: 680, type: !1035, isLocal: false, isDefinition: false, scopeLine: 680, flags: DIFlagPublic | DIFlagPrototyped, isOptimized: false)
!1035 = !DISubroutineType(types: !1036)
!1036 = !{null, !1010, !94}
!1037 = !DISubprogram(name: "precision", linkageName: "_ZNKSt8ios_base9precisionEv", scope: !84, file: !33, line: 691, type: !1038, isLocal: false, isDefinition: false, scopeLine: 691, flags: DIFlagPublic | DIFlagPrototyped, isOptimized: false)
!1038 = !DISubroutineType(types: !1039)
!1039 = !{!132, !1025}
!1040 = !DISubprogram(name: "precision", linkageName: "_ZNSt8ios_base9precisionEl", scope: !84, file: !33, line: 700, type: !1041, isLocal: false, isDefinition: false, scopeLine: 700, flags: DIFlagPublic | DIFlagPrototyped, isOptimized: false)
!1041 = !DISubroutineType(types: !1042)
!1042 = !{!132, !1010, !132}
!1043 = !DISubprogram(name: "width", linkageName: "_ZNKSt8ios_base5widthEv", scope: !84, file: !33, line: 714, type: !1038, isLocal: false, isDefinition: false, scopeLine: 714, flags: DIFlagPublic | DIFlagPrototyped, isOptimized: false)
!1044 = !DISubprogram(name: "width", linkageName: "_ZNSt8ios_base5widthEl", scope: !84, file: !33, line: 723, type: !1041, isLocal: false, isDefinition: false, scopeLine: 723, flags: DIFlagPublic | DIFlagPrototyped, isOptimized: false)
!1045 = !DISubprogram(name: "sync_with_stdio", linkageName: "_ZNSt8ios_base15sync_with_stdioEb", scope: !84, file: !33, line: 742, type: !1046, isLocal: false, isDefinition: false, scopeLine: 742, flags: DIFlagPublic | DIFlagPrototyped | DIFlagStaticMember, isOptimized: false)
!1046 = !DISubroutineType(types: !1047)
!1047 = !{!335, !335}
!1048 = !DISubprogram(name: "imbue", linkageName: "_ZNSt8ios_base5imbueERKSt6locale", scope: !84, file: !33, line: 754, type: !1049, isLocal: false, isDefinition: false, scopeLine: 754, flags: DIFlagPublic | DIFlagPrototyped, isOptimized: false)
!1049 = !DISubroutineType(types: !1050)
!1050 = !{!184, !1010, !375}
!1051 = !DISubprogram(name: "getloc", linkageName: "_ZNKSt8ios_base6getlocEv", scope: !84, file: !33, line: 765, type: !1052, isLocal: false, isDefinition: false, scopeLine: 765, flags: DIFlagPublic | DIFlagPrototyped, isOptimized: false)
!1052 = !DISubroutineType(types: !1053)
!1053 = !{!184, !1025}
!1054 = !DISubprogram(name: "_M_getloc", linkageName: "_ZNKSt8ios_base9_M_getlocEv", scope: !84, file: !33, line: 776, type: !1055, isLocal: false, isDefinition: false, scopeLine: 776, flags: DIFlagPublic | DIFlagPrototyped, isOptimized: false)
!1055 = !DISubroutineType(types: !1056)
!1056 = !{!375, !1025}
!1057 = !DISubprogram(name: "xalloc", linkageName: "_ZNSt8ios_base6xallocEv", scope: !84, file: !33, line: 795, type: !89, isLocal: false, isDefinition: false, scopeLine: 795, flags: DIFlagPublic | DIFlagPrototyped | DIFlagStaticMember, isOptimized: false)
!1058 = !DISubprogram(name: "iword", linkageName: "_ZNSt8ios_base5iwordEi", scope: !84, file: !33, line: 811, type: !1059, isLocal: false, isDefinition: false, scopeLine: 811, flags: DIFlagPublic | DIFlagPrototyped, isOptimized: false)
!1059 = !DISubroutineType(types: !1060)
!1060 = !{!1061, !1010, !91}
!1061 = !DIDerivedType(tag: DW_TAG_reference_type, baseType: !136, size: 64)
!1062 = !DISubprogram(name: "pword", linkageName: "_ZNSt8ios_base5pwordEi", scope: !84, file: !33, line: 832, type: !1063, isLocal: false, isDefinition: false, scopeLine: 832, flags: DIFlagPublic | DIFlagPrototyped, isOptimized: false)
!1063 = !DISubroutineType(types: !1064)
!1064 = !{!1065, !1010, !91}
!1065 = !DIDerivedType(tag: DW_TAG_reference_type, baseType: !170, size: 64)
!1066 = !DISubprogram(name: "~ios_base", scope: !84, file: !33, line: 848, type: !1015, isLocal: false, isDefinition: false, scopeLine: 848, containingType: !84, virtuality: DW_VIRTUALITY_virtual, virtualIndex: 0, flags: DIFlagPublic | DIFlagPrototyped, isOptimized: false)
!1067 = !DISubprogram(name: "ios_base", scope: !84, file: !33, line: 851, type: !1015, isLocal: false, isDefinition: false, scopeLine: 851, flags: DIFlagProtected | DIFlagPrototyped, isOptimized: false)
!1068 = !DISubprogram(name: "ios_base", scope: !84, file: !33, line: 863, type: !1069, isLocal: false, isDefinition: false, scopeLine: 863, flags: DIFlagPublic | DIFlagPrototyped, isOptimized: false)
!1069 = !DISubroutineType(types: !1070)
!1070 = !{null, !1010, !1071}
!1071 = !DIDerivedType(tag: DW_TAG_reference_type, baseType: !1026, size: 64)
!1072 = !DISubprogram(name: "operator=", linkageName: "_ZNSt8ios_baseaSERKS_", scope: !84, file: !33, line: 866, type: !1073, isLocal: false, isDefinition: false, scopeLine: 866, flags: DIFlagPublic | DIFlagPrototyped, isOptimized: false)
!1073 = !DISubroutineType(types: !1074)
!1074 = !{!151, !1010, !1071}
!1075 = !DISubprogram(name: "_M_move", linkageName: "_ZNSt8ios_base7_M_moveERS_", scope: !84, file: !33, line: 870, type: !1076, isLocal: false, isDefinition: false, scopeLine: 870, flags: DIFlagProtected | DIFlagPrototyped, isOptimized: false)
!1076 = !DISubroutineType(types: !1077)
!1077 = !{null, !1010, !151}
!1078 = !DISubprogram(name: "_M_swap", linkageName: "_ZNSt8ios_base7_M_swapERS_", scope: !84, file: !33, line: 873, type: !1076, isLocal: false, isDefinition: false, scopeLine: 873, flags: DIFlagProtected | DIFlagPrototyped, isOptimized: false)
!1079 = !{!1080, !1081, !1082}
!1080 = !DIEnumerator(name: "erase_event", value: 0)
!1081 = !DIEnumerator(name: "imbue_event", value: 1)
!1082 = !DIEnumerator(name: "copyfmt_event", value: 2)
!1083 = distinct !DICompositeType(tag: DW_TAG_enumeration_type, name: "pcaImplementationMethod", scope: !1085, file: !1084, line: 44, baseType: !91, size: 32, elements: !1087, identifier: "_ZTSN2xf7fintech23pcaImplementationMethodE")
!1084 = !DIFile(filename: "C:/Vitis_Libraries/quantitative_finance/L1/tests/pca/../../../L1/include/xf_fintech\5Cpca.hpp", directory: "C:\5CVitis_Libraries\5Cquantitative_finance\5CL1\5Ctests\5Cpca")
!1085 = !DINamespace(name: "fintech", scope: !1086)
!1086 = !DINamespace(name: "xf", scope: null)
!1087 = !{!1088, !1089}
!1088 = !DIEnumerator(name: "Covariance", value: 0)
!1089 = !DIEnumerator(name: "Correlation", value: 1)
!1090 = distinct !DICompositeType(tag: DW_TAG_enumeration_type, name: "float_denorm_style", scope: !34, file: !1091, line: 182, size: 32, elements: !1092, identifier: "_ZTSSt18float_denorm_style")
!1091 = !DIFile(filename: "C:/Xilinx/Vitis_HLS/2023.2/tps/mingw/8.3.0/win64.o/nt\5Clib\5Cgcc\5Cx86_64-w64-mingw32\5C8.3.0\5Cinclude\5Cc++\5Climits", directory: "C:\5CVitis_Libraries\5Cquantitative_finance\5CL1\5Ctests\5Cpca")
!1092 = !{!1093, !1094, !1095}
!1093 = !DIEnumerator(name: "denorm_indeterminate", value: -1)
!1094 = !DIEnumerator(name: "denorm_absent", value: 0)
!1095 = !DIEnumerator(name: "denorm_present", value: 1)
!1096 = distinct !DICompositeType(tag: DW_TAG_enumeration_type, name: "float_round_style", scope: !34, file: !1091, line: 167, size: 32, elements: !1097, identifier: "_ZTSSt17float_round_style")
!1097 = !{!1098, !1099, !1100, !1101, !1102}
!1098 = !DIEnumerator(name: "round_indeterminate", value: -1)
!1099 = !DIEnumerator(name: "round_toward_zero", value: 0)
!1100 = !DIEnumerator(name: "round_to_nearest", value: 1)
!1101 = !DIEnumerator(name: "round_toward_infinity", value: 2)
!1102 = !DIEnumerator(name: "round_toward_neg_infinity", value: 3)
!1103 = !{!1083, !91, !1104, !1160, !170, !1186, !1137, !1213, !1221}
!1104 = distinct !DICompositeType(tag: DW_TAG_structure_type, name: "ap_uint<11>", file: !1105, line: 181, size: 16, flags: DIFlagTypePassByValue, elements: !1106, templateParams: !1159, identifier: "_ZTS7ap_uintILi11EE")
!1105 = !DIFile(filename: "C:/Xilinx/Vitis_HLS/2023.2/common/technology/autopilot\5Cap_int.h", directory: "C:\5CVitis_Libraries\5Cquantitative_finance\5CL1\5Ctests\5Cpca")
!1106 = !{!1107, !1140, !1144, !1148, !1153}
!1107 = !DIDerivedType(tag: DW_TAG_inheritance, scope: !1104, baseType: !1108)
!1108 = distinct !DICompositeType(tag: DW_TAG_structure_type, name: "ap_int_base<11, false>", file: !1109, line: 108, size: 16, flags: DIFlagTypePassByValue, elements: !1110, templateParams: !1138, identifier: "_ZTS11ap_int_baseILi11ELb0EE")
!1109 = !DIFile(filename: "C:/Xilinx/Vitis_HLS/2023.2/common/technology/autopilot\5Cetc/ap_int_base.h", directory: "C:\5CVitis_Libraries\5Cquantitative_finance\5CL1\5Ctests\5Cpca")
!1110 = !{!1111, !1127, !1129, !1131}
!1111 = !DIDerivedType(tag: DW_TAG_inheritance, scope: !1108, baseType: !1112)
!1112 = distinct !DICompositeType(tag: DW_TAG_structure_type, name: "ssdm_int<11, false>", file: !1113, line: 519, size: 16, flags: DIFlagTypePassByValue, elements: !1114, templateParams: !1124, identifier: "_ZTS8ssdm_intILi11ELb0EE")
!1113 = !DIFile(filename: "C:/Xilinx/Vitis_HLS/2023.2/common/technology/autopilot\5Cetc/ap_common.h", directory: "C:\5CVitis_Libraries\5Cquantitative_finance\5CL1\5Ctests\5Cpca")
!1114 = !{!1115, !1117, !1121}
!1115 = !DIDerivedType(tag: DW_TAG_member, name: "V", scope: !1112, file: !1113, line: 521, baseType: !1116, size: 11, align: 16)
!1116 = !DIBasicType(name: "uint11", size: 11, encoding: DW_ATE_unsigned)
!1117 = !DISubprogram(name: "ssdm_int", scope: !1112, file: !1113, line: 522, type: !1118, isLocal: false, isDefinition: false, scopeLine: 522, flags: DIFlagPrototyped, isOptimized: false)
!1118 = !DISubroutineType(types: !1119)
!1119 = !{null, !1120}
!1120 = !DIDerivedType(tag: DW_TAG_pointer_type, baseType: !1112, size: 64, flags: DIFlagArtificial | DIFlagObjectPointer)
!1121 = !DISubprogram(name: "ssdm_int", scope: !1112, file: !1113, line: 523, type: !1122, isLocal: false, isDefinition: false, scopeLine: 523, flags: DIFlagPrototyped, isOptimized: false)
!1122 = !DISubroutineType(types: !1123)
!1123 = !{null, !1120, !1116}
!1124 = !{!1125, !1126}
!1125 = !DITemplateValueParameter(name: "_AP_N", type: !91, value: i32 11)
!1126 = !DITemplateValueParameter(name: "_AP_S", type: !335, value: i8 0)
!1127 = !DIDerivedType(tag: DW_TAG_member, name: "width", scope: !1108, file: !1109, line: 130, baseType: !1128, flags: DIFlagStaticMember, extraData: i32 11)
!1128 = !DIDerivedType(tag: DW_TAG_const_type, baseType: !91)
!1129 = !DIDerivedType(tag: DW_TAG_member, name: "sign_flag", scope: !1108, file: !1109, line: 131, baseType: !1130, flags: DIFlagStaticMember, extraData: i1 false)
!1130 = !DIDerivedType(tag: DW_TAG_const_type, baseType: !335)
!1131 = !DISubprogram(name: "operator=", linkageName: "_ZN11ap_int_baseILi11ELb0EEaSERKS0_", scope: !1108, file: !1109, line: 461, type: !1132, isLocal: false, isDefinition: false, scopeLine: 461, flags: DIFlagPrototyped, isOptimized: false)
!1132 = !DISubroutineType(types: !1133)
!1133 = !{!1134, !1135, !1136}
!1134 = !DIDerivedType(tag: DW_TAG_reference_type, baseType: !1108, size: 64)
!1135 = !DIDerivedType(tag: DW_TAG_pointer_type, baseType: !1108, size: 64, flags: DIFlagArtificial | DIFlagObjectPointer)
!1136 = !DIDerivedType(tag: DW_TAG_reference_type, baseType: !1137, size: 64)
!1137 = !DIDerivedType(tag: DW_TAG_const_type, baseType: !1108)
!1138 = !{!1139, !1126}
!1139 = !DITemplateValueParameter(name: "_AP_W", type: !91, value: i32 11)
!1140 = !DISubprogram(name: "ap_uint", scope: !1104, file: !1105, line: 294, type: !1141, isLocal: false, isDefinition: false, scopeLine: 294, flags: DIFlagPrototyped, isOptimized: false)
!1141 = !DISubroutineType(types: !1142)
!1142 = !{null, !1143, !22}
!1143 = !DIDerivedType(tag: DW_TAG_pointer_type, baseType: !1104, size: 64, flags: DIFlagArtificial | DIFlagObjectPointer)
!1144 = !DISubprogram(name: "ap_uint", scope: !1104, file: !1105, line: 295, type: !1145, isLocal: false, isDefinition: false, scopeLine: 295, flags: DIFlagPrototyped, isOptimized: false)
!1145 = !DISubroutineType(types: !1146)
!1146 = !{null, !1143, !1147}
!1147 = !DIBasicType(name: "float", size: 32, encoding: DW_ATE_float)
!1148 = !DISubprogram(name: "ap_uint", scope: !1104, file: !1105, line: 296, type: !1149, isLocal: false, isDefinition: false, scopeLine: 296, flags: DIFlagPrototyped, isOptimized: false)
!1149 = !DISubroutineType(types: !1150)
!1150 = !{null, !1143, !1151}
!1151 = !DIDerivedType(tag: DW_TAG_typedef, name: "half", file: !1113, line: 613, baseType: !1152)
!1152 = !DIBasicType(name: "__fp16", size: 16, encoding: DW_ATE_float)
!1153 = !DISubprogram(name: "operator=", linkageName: "_ZN7ap_uintILi11EEaSERKS0_", scope: !1104, file: !1105, line: 307, type: !1154, isLocal: false, isDefinition: false, scopeLine: 307, flags: DIFlagPrototyped, isOptimized: false)
!1154 = !DISubroutineType(types: !1155)
!1155 = !{!1156, !1143, !1157}
!1156 = !DIDerivedType(tag: DW_TAG_reference_type, baseType: !1104, size: 64)
!1157 = !DIDerivedType(tag: DW_TAG_reference_type, baseType: !1158, size: 64)
!1158 = !DIDerivedType(tag: DW_TAG_const_type, baseType: !1104)
!1159 = !{!1139}
!1160 = !DIDerivedType(tag: DW_TAG_const_type, baseType: !1161)
!1161 = distinct !DICompositeType(tag: DW_TAG_structure_type, name: "ap_int_base<64, false>", file: !1109, line: 108, size: 64, flags: DIFlagTypePassByValue, elements: !1162, templateParams: !1184, identifier: "_ZTS11ap_int_baseILi64ELb0EE")
!1162 = !{!1163, !1176, !1177, !1178}
!1163 = !DIDerivedType(tag: DW_TAG_inheritance, scope: !1161, baseType: !1164)
!1164 = distinct !DICompositeType(tag: DW_TAG_structure_type, name: "ssdm_int<64, false>", file: !1113, line: 519, size: 64, flags: DIFlagTypePassByValue, elements: !1165, templateParams: !1174, identifier: "_ZTS8ssdm_intILi64ELb0EE")
!1165 = !{!1166, !1167, !1171}
!1166 = !DIDerivedType(tag: DW_TAG_member, name: "V", scope: !1164, file: !1113, line: 521, baseType: !232, size: 64)
!1167 = !DISubprogram(name: "ssdm_int", scope: !1164, file: !1113, line: 522, type: !1168, isLocal: false, isDefinition: false, scopeLine: 522, flags: DIFlagPrototyped, isOptimized: false)
!1168 = !DISubroutineType(types: !1169)
!1169 = !{null, !1170}
!1170 = !DIDerivedType(tag: DW_TAG_pointer_type, baseType: !1164, size: 64, flags: DIFlagArtificial | DIFlagObjectPointer)
!1171 = !DISubprogram(name: "ssdm_int", scope: !1164, file: !1113, line: 523, type: !1172, isLocal: false, isDefinition: false, scopeLine: 523, flags: DIFlagPrototyped, isOptimized: false)
!1172 = !DISubroutineType(types: !1173)
!1173 = !{null, !1170, !232}
!1174 = !{!1175, !1126}
!1175 = !DITemplateValueParameter(name: "_AP_N", type: !91, value: i32 64)
!1176 = !DIDerivedType(tag: DW_TAG_member, name: "width", scope: !1161, file: !1109, line: 130, baseType: !1128, flags: DIFlagStaticMember, extraData: i32 64)
!1177 = !DIDerivedType(tag: DW_TAG_member, name: "sign_flag", scope: !1161, file: !1109, line: 131, baseType: !1130, flags: DIFlagStaticMember, extraData: i1 false)
!1178 = !DISubprogram(name: "operator=", linkageName: "_ZN11ap_int_baseILi64ELb0EEaSERKS0_", scope: !1161, file: !1109, line: 461, type: !1179, isLocal: false, isDefinition: false, scopeLine: 461, flags: DIFlagPrototyped, isOptimized: false)
!1179 = !DISubroutineType(types: !1180)
!1180 = !{!1181, !1182, !1183}
!1181 = !DIDerivedType(tag: DW_TAG_reference_type, baseType: !1161, size: 64)
!1182 = !DIDerivedType(tag: DW_TAG_pointer_type, baseType: !1161, size: 64, flags: DIFlagArtificial | DIFlagObjectPointer)
!1183 = !DIDerivedType(tag: DW_TAG_reference_type, baseType: !1160, size: 64)
!1184 = !{!1185, !1126}
!1185 = !DITemplateValueParameter(name: "_AP_W", type: !91, value: i32 64)
!1186 = distinct !DICompositeType(tag: DW_TAG_structure_type, name: "ap_int_base<12, false>", file: !1109, line: 108, size: 16, flags: DIFlagTypePassByValue, elements: !1187, templateParams: !1211, identifier: "_ZTS11ap_int_baseILi12ELb0EE")
!1187 = !{!1188, !1202, !1203, !1204}
!1188 = !DIDerivedType(tag: DW_TAG_inheritance, scope: !1186, baseType: !1189)
!1189 = distinct !DICompositeType(tag: DW_TAG_structure_type, name: "ssdm_int<12, false>", file: !1113, line: 519, size: 16, flags: DIFlagTypePassByValue, elements: !1190, templateParams: !1200, identifier: "_ZTS8ssdm_intILi12ELb0EE")
!1190 = !{!1191, !1193, !1197}
!1191 = !DIDerivedType(tag: DW_TAG_member, name: "V", scope: !1189, file: !1113, line: 521, baseType: !1192, size: 12, align: 16)
!1192 = !DIBasicType(name: "uint12", size: 12, encoding: DW_ATE_unsigned)
!1193 = !DISubprogram(name: "ssdm_int", scope: !1189, file: !1113, line: 522, type: !1194, isLocal: false, isDefinition: false, scopeLine: 522, flags: DIFlagPrototyped, isOptimized: false)
!1194 = !DISubroutineType(types: !1195)
!1195 = !{null, !1196}
!1196 = !DIDerivedType(tag: DW_TAG_pointer_type, baseType: !1189, size: 64, flags: DIFlagArtificial | DIFlagObjectPointer)
!1197 = !DISubprogram(name: "ssdm_int", scope: !1189, file: !1113, line: 523, type: !1198, isLocal: false, isDefinition: false, scopeLine: 523, flags: DIFlagPrototyped, isOptimized: false)
!1198 = !DISubroutineType(types: !1199)
!1199 = !{null, !1196, !1192}
!1200 = !{!1201, !1126}
!1201 = !DITemplateValueParameter(name: "_AP_N", type: !91, value: i32 12)
!1202 = !DIDerivedType(tag: DW_TAG_member, name: "width", scope: !1186, file: !1109, line: 130, baseType: !1128, flags: DIFlagStaticMember, extraData: i32 12)
!1203 = !DIDerivedType(tag: DW_TAG_member, name: "sign_flag", scope: !1186, file: !1109, line: 131, baseType: !1130, flags: DIFlagStaticMember, extraData: i1 false)
!1204 = !DISubprogram(name: "operator=", linkageName: "_ZN11ap_int_baseILi12ELb0EEaSERKS0_", scope: !1186, file: !1109, line: 461, type: !1205, isLocal: false, isDefinition: false, scopeLine: 461, flags: DIFlagPrototyped, isOptimized: false)
!1205 = !DISubroutineType(types: !1206)
!1206 = !{!1207, !1208, !1209}
!1207 = !DIDerivedType(tag: DW_TAG_reference_type, baseType: !1186, size: 64)
!1208 = !DIDerivedType(tag: DW_TAG_pointer_type, baseType: !1186, size: 64, flags: DIFlagArtificial | DIFlagObjectPointer)
!1209 = !DIDerivedType(tag: DW_TAG_reference_type, baseType: !1210, size: 64)
!1210 = !DIDerivedType(tag: DW_TAG_const_type, baseType: !1186)
!1211 = !{!1212, !1126}
!1212 = !DITemplateValueParameter(name: "_AP_W", type: !91, value: i32 12)
!1213 = !DIDerivedType(tag: DW_TAG_typedef, name: "RetType", scope: !1161, file: !1109, line: 128, baseType: !1214)
!1214 = !DIDerivedType(tag: DW_TAG_typedef, name: "Type", scope: !1215, file: !1109, line: 51, baseType: !1218)
!1215 = distinct !DICompositeType(tag: DW_TAG_structure_type, name: "retval<8, false>", file: !1109, line: 50, size: 8, flags: DIFlagTypePassByValue, elements: !4, templateParams: !1216, identifier: "_ZTS6retvalILi8ELb0EE")
!1216 = !{!1217, !1126}
!1217 = !DITemplateValueParameter(name: "_AP_N", type: !91, value: i32 8)
!1218 = !DIDerivedType(tag: DW_TAG_typedef, name: "ap_ulong", file: !1219, line: 188, baseType: !1220)
!1219 = !DIFile(filename: "C:/Xilinx/Vitis_HLS/2023.2/common/technology/autopilot\5Cetc/ap_decl.h", directory: "C:\5CVitis_Libraries\5Cquantitative_finance\5CL1\5Ctests\5Cpca")
!1220 = !DIBasicType(name: "long long unsigned int", size: 64, encoding: DW_ATE_unsigned)
!1221 = distinct !DICompositeType(tag: DW_TAG_class_type, name: "PCA<double, 3, 1, 15, 80, xf::fintech::pcaImplementationMethod::Covariance>", scope: !1085, file: !1084, line: 71, size: 6208, flags: DIFlagTypePassByValue, elements: !1222, templateParams: !1251, identifier: "_ZTSN2xf7fintech3PCAIdLj3ELj1ELj15ELj80ELNS0_23pcaImplementationMethodE0EEE")
!1222 = !{!1223, !1225, !1226, !1229, !1233, !1237, !1241, !1244, !1247, !1250}
!1223 = !DIDerivedType(tag: DW_TAG_member, name: "EIG_DUP", scope: !1221, file: !1084, line: 72, baseType: !1224, flags: DIFlagStaticMember, extraData: i32 2)
!1224 = !DIDerivedType(tag: DW_TAG_const_type, baseType: !19)
!1225 = !DIDerivedType(tag: DW_TAG_member, name: "m_noVariables", scope: !1221, file: !1084, line: 74, baseType: !1224, size: 32)
!1226 = !DIDerivedType(tag: DW_TAG_member, name: "m_pcVals", scope: !1221, file: !1084, line: 77, baseType: !1227, size: 384, offset: 64)
!1227 = !DICompositeType(tag: DW_TAG_array_type, baseType: !22, size: 384, elements: !1228)
!1228 = !{!219, !28}
!1229 = !DIDerivedType(tag: DW_TAG_member, name: "m_pcVecs", scope: !1221, file: !1084, line: 78, baseType: !1230, size: 5760, offset: 448)
!1230 = !DICompositeType(tag: DW_TAG_array_type, baseType: !22, size: 5760, elements: !1231)
!1231 = !{!219, !1232}
!1232 = !DISubrange(count: 45)
!1233 = !DISubprogram(name: "PCA", scope: !1221, file: !1084, line: 83, type: !1234, isLocal: false, isDefinition: false, scopeLine: 83, flags: DIFlagPrototyped, isOptimized: false)
!1234 = !DISubroutineType(types: !1235)
!1235 = !{null, !1236}
!1236 = !DIDerivedType(tag: DW_TAG_pointer_type, baseType: !1221, size: 64, flags: DIFlagArtificial | DIFlagObjectPointer)
!1237 = !DISubprogram(name: "implement", linkageName: "_ZN2xf7fintech3PCAIdLj3ELj1ELj15ELj80ELNS0_23pcaImplementationMethodE0EE9implementEjPd", scope: !1221, file: !1084, line: 167, type: !1238, isLocal: false, isDefinition: false, scopeLine: 167, flags: DIFlagPrototyped, isOptimized: false)
!1238 = !DISubroutineType(types: !1239)
!1239 = !{null, !1236, !19, !1240}
!1240 = !DIDerivedType(tag: DW_TAG_pointer_type, baseType: !22, size: 64)
!1241 = !DISubprogram(name: "PCA", scope: !1221, file: !1084, line: 261, type: !1242, isLocal: false, isDefinition: false, scopeLine: 261, flags: DIFlagPublic | DIFlagPrototyped, isOptimized: false)
!1242 = !DISubroutineType(types: !1243)
!1243 = !{null, !1236, !1224, !1224, !20}
!1244 = !DISubprogram(name: "getExplainedVariance", linkageName: "_ZN2xf7fintech3PCAIdLj3ELj1ELj15ELj80ELNS0_23pcaImplementationMethodE0EE20getExplainedVarianceEPd", scope: !1221, file: !1084, line: 306, type: !1245, isLocal: false, isDefinition: false, scopeLine: 306, flags: DIFlagPublic | DIFlagPrototyped, isOptimized: false)
!1245 = !DISubroutineType(types: !1246)
!1246 = !{null, !1236, !1240}
!1247 = !DISubprogram(name: "getComponents", linkageName: "_ZN2xf7fintech3PCAIdLj3ELj1ELj15ELj80ELNS0_23pcaImplementationMethodE0EE13getComponentsEPA3_d", scope: !1221, file: !1084, line: 319, type: !1248, isLocal: false, isDefinition: false, scopeLine: 319, flags: DIFlagPublic | DIFlagPrototyped, isOptimized: false)
!1248 = !DISubroutineType(types: !1249)
!1249 = !{null, !1236, !25}
!1250 = !DISubprogram(name: "getLoadingsMatrix", linkageName: "_ZN2xf7fintech3PCAIdLj3ELj1ELj15ELj80ELNS0_23pcaImplementationMethodE0EE17getLoadingsMatrixEPA3_d", scope: !1221, file: !1084, line: 336, type: !1248, isLocal: false, isDefinition: false, scopeLine: 336, flags: DIFlagPublic | DIFlagPrototyped, isOptimized: false)
!1251 = !{!1252, !1253, !1254, !1255, !1256, !1257}
!1252 = !DITemplateTypeParameter(name: "DT", type: !22)
!1253 = !DITemplateValueParameter(name: "N", type: !19, value: i32 3)
!1254 = !DITemplateValueParameter(name: "NCU", type: !19, value: i32 1)
!1255 = !DITemplateValueParameter(name: "MAX_VARS", type: !19, value: i32 15)
!1256 = !DITemplateValueParameter(name: "MAX_OBS", type: !19, value: i32 80)
!1257 = !DITemplateValueParameter(name: "IMPL_METHOD", type: !1083, value: i32 0)
!1258 = !{!1259}
!1259 = !DIGlobalVariableExpression(var: !1260, expr: !DIExpression())
!1260 = distinct !DIGlobalVariable(name: "__ioinit", linkageName: "_ZStL8__ioinit", scope: !34, file: !1261, line: 74, type: !1262, isLocal: true, isDefinition: true)
!1261 = !DIFile(filename: "C:/Xilinx/Vitis_HLS/2023.2/tps/mingw/8.3.0/win64.o/nt\5Clib\5Cgcc\5Cx86_64-w64-mingw32\5C8.3.0\5Cinclude\5Cc++\5Ciostream", directory: "C:\5CVitis_Libraries\5Cquantitative_finance\5CL1\5Ctests\5Cpca")
!1262 = distinct !DICompositeType(tag: DW_TAG_class_type, name: "Init", scope: !84, file: !33, line: 603, size: 8, flags: DIFlagTypePassByReference, elements: !1263, identifier: "_ZTSNSt8ios_base4InitE")
!1263 = !{!1264, !1265, !1266, !1270}
!1264 = !DIDerivedType(tag: DW_TAG_member, name: "_S_refcount", scope: !1262, file: !33, line: 611, baseType: !154, flags: DIFlagStaticMember)
!1265 = !DIDerivedType(tag: DW_TAG_member, name: "_S_synced_with_stdio", scope: !1262, file: !33, line: 612, baseType: !335, flags: DIFlagStaticMember)
!1266 = !DISubprogram(name: "Init", scope: !1262, file: !33, line: 607, type: !1267, isLocal: false, isDefinition: false, scopeLine: 607, flags: DIFlagPublic | DIFlagPrototyped, isOptimized: false)
!1267 = !DISubroutineType(types: !1268)
!1268 = !{null, !1269}
!1269 = !DIDerivedType(tag: DW_TAG_pointer_type, baseType: !1262, size: 64, flags: DIFlagArtificial | DIFlagObjectPointer)
!1270 = !DISubprogram(name: "~Init", scope: !1262, file: !33, line: 608, type: !1267, isLocal: false, isDefinition: false, scopeLine: 608, flags: DIFlagPublic | DIFlagPrototyped, isOptimized: false)
!1271 = !{!1272, !1278, !1283, !1285, !1287, !1291, !1293, !1295, !1297, !1299, !1301, !1303, !1305, !1309, !1313, !1315, !1317, !1321, !1323, !1325, !1327, !1329, !1331, !1333, !1335, !1337, !1339, !1343, !1348, !1350, !1352, !1354, !1356, !1358, !1360, !1362, !1364, !1366, !1368, !1372, !1376, !1378, !1380, !1382, !1384, !1386, !1388, !1390, !1392, !1394, !1396, !1398, !1400, !1402, !1404, !1406, !1410, !1414, !1418, !1420, !1422, !1424, !1426, !1428, !1430, !1432, !1434, !1436, !1440, !1444, !1448, !1450, !1452, !1454, !1459, !1463, !1467, !1469, !1471, !1473, !1475, !1477, !1479, !1481, !1483, !1485, !1487, !1489, !1491, !1495, !1499, !1503, !1505, !1507, !1509, !1513, !1517, !1521, !1523, !1525, !1527, !1529, !1531, !1533, !1537, !1541, !1543, !1545, !1547, !1549, !1553, !1557, !1561, !1563, !1565, !1567, !1569, !1571, !1573, !1577, !1581, !1585, !1587, !1591, !1595, !1597, !1599, !1601, !1603, !1605, !1607, !1612, !1618, !1620, !1625, !1627, !1631, !1635, !1644, !1648, !1652, !1656, !1660, !1664, !1668, !1672, !1676, !1680, !1688, !1692, !1696, !1698, !1702, !1706, !1711, !1715, !1719, !1721, !1729, !1733, !1739, !1741, !1745, !1749, !1753, !1757, !1761, !1765, !1769, !1770, !1771, !1772, !1774, !1775, !1776, !1777, !1778, !1779, !1780, !1782, !1783, !1784, !1785, !1786, !1791, !1792, !1793, !1794, !1795, !1796, !1797, !1798, !1799, !1800, !1801, !1802, !1803, !1804, !1805, !1806, !1807, !1808, !1809, !1810, !1811, !1812, !1813, !1814, !1815, !1819, !1822, !1826, !1833, !1838, !1842, !1846, !1850, !1854, !1856, !1858, !1862, !1868, !1872, !1878, !1884, !1886, !1890, !1895, !1899, !1903, !1908, !1910, !1914, !1918, !1922, !1924, !1928, !1932, !1936, !1938, !1940, !1944, !1952, !1956, !1960, !1964, !1966, !1972, !1974, !1980, !1984, !1986, !1990, !1994, !1998, !2002, !2004, !2006, !2010, !2014, !2018, !2020, !2024, !2028, !2030, !2032, !2036, !2040, !2044, !2048, !2049, !2050, !2051, !2052, !2053, !2054, !2055, !2056, !2057, !2058, !2157, !2161, !2165, !2170, !2173, !2175, !2177, !2179, !2181, !2183, !2185, !2187, !2189, !2191, !2193, !2195, !2197, !2200, !2202, !2204, !2206, !2208, !2210, !2212, !2214, !2216, !2218, !2220, !2222, !2224, !2226, !2230, !2234, !2239, !2243, !2245, !2247, !2249, !2251, !2253, !2255, !2257, !2259, !2261, !2263, !2265, !2267, !2269, !2270, !2271, !2273, !2276, !2280, !2284, !2286, !2288, !2290, !2292, !2298, !2302, !2306, !2310, !2314, !2318, !2325, !2329, !2331, !2335, !2341, !2345, !2350, !2352, !2354, !2358, !2362, !2364, !2366, !2368, !2370, !2374, !2376, !2378, !2382, !2386, !2390, !2394, !2398, !2402, !2404, !2408, !2412, !2416, !2420, !2422, !2424, !2428, !2432, !2433, !2434, !2435, !2436, !2437, !2441, !2443, !2444, !2446, !2448, !2450, !2452, !2456, !2458, !2460, !2462, !2464, !2466, !2468, !2470, !2472, !2476, !2480, !2482, !2486}
!1272 = !DIImportedEntity(tag: DW_TAG_imported_declaration, scope: !34, entity: !1273, file: !1277, line: 52)
!1273 = !DISubprogram(name: "abs", scope: !1274, file: !1274, line: 254, type: !1275, isLocal: false, isDefinition: false, flags: DIFlagPrototyped, isOptimized: false)
!1274 = !DIFile(filename: "C:/Xilinx/Vitis_HLS/2023.2/tps/mingw/8.3.0/win64.o/nt\5Cx86_64-w64-mingw32\5Cinclude\5Cmath.h", directory: "C:\5CVitis_Libraries\5Cquantitative_finance\5CL1\5Ctests\5Cpca")
!1275 = !DISubroutineType(types: !1276)
!1276 = !{!91, !91}
!1277 = !DIFile(filename: "C:/Xilinx/Vitis_HLS/2023.2/tps/mingw/8.3.0/win64.o/nt\5Clib\5Cgcc\5Cx86_64-w64-mingw32\5C8.3.0\5Cinclude\5Cc++\5Cbits/std_abs.h", directory: "C:\5CVitis_Libraries\5Cquantitative_finance\5CL1\5Ctests\5Cpca")
!1278 = !DIImportedEntity(tag: DW_TAG_imported_declaration, scope: !34, entity: !1279, file: !1282, line: 83)
!1279 = !DISubprogram(name: "acos", scope: !1274, file: !1274, line: 190, type: !1280, isLocal: false, isDefinition: false, flags: DIFlagPrototyped, isOptimized: false)
!1280 = !DISubroutineType(types: !1281)
!1281 = !{!22, !22}
!1282 = !DIFile(filename: "C:/Xilinx/Vitis_HLS/2023.2/tps/mingw/8.3.0/win64.o/nt\5Clib\5Cgcc\5Cx86_64-w64-mingw32\5C8.3.0\5Cinclude\5Cc++\5Ccmath", directory: "C:\5CVitis_Libraries\5Cquantitative_finance\5CL1\5Ctests\5Cpca")
!1283 = !DIImportedEntity(tag: DW_TAG_imported_declaration, scope: !34, entity: !1284, file: !1282, line: 102)
!1284 = !DISubprogram(name: "asin", scope: !1274, file: !1274, line: 189, type: !1280, isLocal: false, isDefinition: false, flags: DIFlagPrototyped, isOptimized: false)
!1285 = !DIImportedEntity(tag: DW_TAG_imported_declaration, scope: !34, entity: !1286, file: !1282, line: 121)
!1286 = !DISubprogram(name: "atan", scope: !1274, file: !1274, line: 191, type: !1280, isLocal: false, isDefinition: false, flags: DIFlagPrototyped, isOptimized: false)
!1287 = !DIImportedEntity(tag: DW_TAG_imported_declaration, scope: !34, entity: !1288, file: !1282, line: 140)
!1288 = !DISubprogram(name: "atan2", scope: !1274, file: !1274, line: 192, type: !1289, isLocal: false, isDefinition: false, flags: DIFlagPrototyped, isOptimized: false)
!1289 = !DISubroutineType(types: !1290)
!1290 = !{!22, !22, !22}
!1291 = !DIImportedEntity(tag: DW_TAG_imported_declaration, scope: !34, entity: !1292, file: !1282, line: 161)
!1292 = !DISubprogram(name: "ceil", scope: !1274, file: !1274, line: 198, type: !1280, isLocal: false, isDefinition: false, flags: DIFlagPrototyped, isOptimized: false)
!1293 = !DIImportedEntity(tag: DW_TAG_imported_declaration, scope: !34, entity: !1294, file: !1282, line: 180)
!1294 = !DISubprogram(name: "cos", scope: !1274, file: !1274, line: 184, type: !1280, isLocal: false, isDefinition: false, flags: DIFlagPrototyped, isOptimized: false)
!1295 = !DIImportedEntity(tag: DW_TAG_imported_declaration, scope: !34, entity: !1296, file: !1282, line: 199)
!1296 = !DISubprogram(name: "cosh", scope: !1274, file: !1274, line: 187, type: !1280, isLocal: false, isDefinition: false, flags: DIFlagPrototyped, isOptimized: false)
!1297 = !DIImportedEntity(tag: DW_TAG_imported_declaration, scope: !34, entity: !1298, file: !1282, line: 218)
!1298 = !DISubprogram(name: "exp", scope: !1274, file: !1274, line: 193, type: !1280, isLocal: false, isDefinition: false, flags: DIFlagPrototyped, isOptimized: false)
!1299 = !DIImportedEntity(tag: DW_TAG_imported_declaration, scope: !34, entity: !1300, file: !1282, line: 237)
!1300 = !DISubprogram(name: "fabs", scope: !1274, file: !1274, line: 204, type: !1280, isLocal: false, isDefinition: false, flags: DIFlagPrototyped, isOptimized: false)
!1301 = !DIImportedEntity(tag: DW_TAG_imported_declaration, scope: !34, entity: !1302, file: !1282, line: 256)
!1302 = !DISubprogram(name: "floor", scope: !1274, file: !1274, line: 199, type: !1280, isLocal: false, isDefinition: false, flags: DIFlagPrototyped, isOptimized: false)
!1303 = !DIImportedEntity(tag: DW_TAG_imported_declaration, scope: !34, entity: !1304, file: !1282, line: 275)
!1304 = !DISubprogram(name: "fmod", scope: !1274, file: !1274, line: 246, type: !1289, isLocal: false, isDefinition: false, flags: DIFlagPrototyped, isOptimized: false)
!1305 = !DIImportedEntity(tag: DW_TAG_imported_declaration, scope: !34, entity: !1306, file: !1282, line: 296)
!1306 = !DISubprogram(name: "frexp", scope: !1274, file: !1274, line: 244, type: !1307, isLocal: false, isDefinition: false, flags: DIFlagPrototyped, isOptimized: false)
!1307 = !DISubroutineType(types: !1308)
!1308 = !{!22, !22, !213}
!1309 = !DIImportedEntity(tag: DW_TAG_imported_declaration, scope: !34, entity: !1310, file: !1282, line: 315)
!1310 = !DISubprogram(name: "ldexp", scope: !1274, file: !1274, line: 243, type: !1311, isLocal: false, isDefinition: false, flags: DIFlagPrototyped, isOptimized: false)
!1311 = !DISubroutineType(types: !1312)
!1312 = !{!22, !22, !91}
!1313 = !DIImportedEntity(tag: DW_TAG_imported_declaration, scope: !34, entity: !1314, file: !1282, line: 334)
!1314 = !DISubprogram(name: "log", scope: !1274, file: !1274, line: 194, type: !1280, isLocal: false, isDefinition: false, flags: DIFlagPrototyped, isOptimized: false)
!1315 = !DIImportedEntity(tag: DW_TAG_imported_declaration, scope: !34, entity: !1316, file: !1282, line: 353)
!1316 = !DISubprogram(name: "log10", scope: !1274, file: !1274, line: 195, type: !1280, isLocal: false, isDefinition: false, flags: DIFlagPrototyped, isOptimized: false)
!1317 = !DIImportedEntity(tag: DW_TAG_imported_declaration, scope: !34, entity: !1318, file: !1282, line: 372)
!1318 = !DISubprogram(name: "modf", scope: !1274, file: !1274, line: 245, type: !1319, isLocal: false, isDefinition: false, flags: DIFlagPrototyped, isOptimized: false)
!1319 = !DISubroutineType(types: !1320)
!1320 = !{!22, !22, !1240}
!1321 = !DIImportedEntity(tag: DW_TAG_imported_declaration, scope: !34, entity: !1322, file: !1282, line: 384)
!1322 = !DISubprogram(name: "pow", scope: !1274, file: !1274, line: 196, type: !1289, isLocal: false, isDefinition: false, flags: DIFlagPrototyped, isOptimized: false)
!1323 = !DIImportedEntity(tag: DW_TAG_imported_declaration, scope: !34, entity: !1324, file: !1282, line: 421)
!1324 = !DISubprogram(name: "sin", scope: !1274, file: !1274, line: 183, type: !1280, isLocal: false, isDefinition: false, flags: DIFlagPrototyped, isOptimized: false)
!1325 = !DIImportedEntity(tag: DW_TAG_imported_declaration, scope: !34, entity: !1326, file: !1282, line: 440)
!1326 = !DISubprogram(name: "sinh", scope: !1274, file: !1274, line: 186, type: !1280, isLocal: false, isDefinition: false, flags: DIFlagPrototyped, isOptimized: false)
!1327 = !DIImportedEntity(tag: DW_TAG_imported_declaration, scope: !34, entity: !1328, file: !1282, line: 459)
!1328 = !DISubprogram(name: "sqrt", scope: !1274, file: !1274, line: 197, type: !1280, isLocal: false, isDefinition: false, flags: DIFlagPrototyped, isOptimized: false)
!1329 = !DIImportedEntity(tag: DW_TAG_imported_declaration, scope: !34, entity: !1330, file: !1282, line: 478)
!1330 = !DISubprogram(name: "tan", scope: !1274, file: !1274, line: 185, type: !1280, isLocal: false, isDefinition: false, flags: DIFlagPrototyped, isOptimized: false)
!1331 = !DIImportedEntity(tag: DW_TAG_imported_declaration, scope: !34, entity: !1332, file: !1282, line: 497)
!1332 = !DISubprogram(name: "tanh", scope: !1274, file: !1274, line: 188, type: !1280, isLocal: false, isDefinition: false, flags: DIFlagPrototyped, isOptimized: false)
!1333 = !DIImportedEntity(tag: DW_TAG_imported_declaration, scope: !34, entity: !1334, file: !1282, line: 1065)
!1334 = !DIDerivedType(tag: DW_TAG_typedef, name: "double_t", file: !1274, line: 373, baseType: !22)
!1335 = !DIImportedEntity(tag: DW_TAG_imported_declaration, scope: !34, entity: !1336, file: !1282, line: 1066)
!1336 = !DIDerivedType(tag: DW_TAG_typedef, name: "float_t", file: !1274, line: 372, baseType: !1147)
!1337 = !DIImportedEntity(tag: DW_TAG_imported_declaration, scope: !34, entity: !1338, file: !1282, line: 1069)
!1338 = !DISubprogram(name: "acosh", scope: !1274, file: !1274, line: 705, type: !1280, isLocal: false, isDefinition: false, flags: DIFlagPrototyped, isOptimized: false)
!1339 = !DIImportedEntity(tag: DW_TAG_imported_declaration, scope: !34, entity: !1340, file: !1282, line: 1070)
!1340 = !DISubprogram(name: "acoshf", scope: !1274, file: !1274, line: 706, type: !1341, isLocal: false, isDefinition: false, flags: DIFlagPrototyped, isOptimized: false)
!1341 = !DISubroutineType(types: !1342)
!1342 = !{!1147, !1147}
!1343 = !DIImportedEntity(tag: DW_TAG_imported_declaration, scope: !34, entity: !1344, file: !1282, line: 1071)
!1344 = !DISubprogram(name: "acoshl", scope: !1274, file: !1274, line: 707, type: !1345, isLocal: false, isDefinition: false, flags: DIFlagPrototyped, isOptimized: false)
!1345 = !DISubroutineType(types: !1346)
!1346 = !{!1347, !1347}
!1347 = !DIBasicType(name: "long double", size: 64, encoding: DW_ATE_float)
!1348 = !DIImportedEntity(tag: DW_TAG_imported_declaration, scope: !34, entity: !1349, file: !1282, line: 1073)
!1349 = !DISubprogram(name: "asinh", scope: !1274, file: !1274, line: 710, type: !1280, isLocal: false, isDefinition: false, flags: DIFlagPrototyped, isOptimized: false)
!1350 = !DIImportedEntity(tag: DW_TAG_imported_declaration, scope: !34, entity: !1351, file: !1282, line: 1074)
!1351 = !DISubprogram(name: "asinhf", scope: !1274, file: !1274, line: 711, type: !1341, isLocal: false, isDefinition: false, flags: DIFlagPrototyped, isOptimized: false)
!1352 = !DIImportedEntity(tag: DW_TAG_imported_declaration, scope: !34, entity: !1353, file: !1282, line: 1075)
!1353 = !DISubprogram(name: "asinhl", scope: !1274, file: !1274, line: 712, type: !1345, isLocal: false, isDefinition: false, flags: DIFlagPrototyped, isOptimized: false)
!1354 = !DIImportedEntity(tag: DW_TAG_imported_declaration, scope: !34, entity: !1355, file: !1282, line: 1077)
!1355 = !DISubprogram(name: "atanh", scope: !1274, file: !1274, line: 715, type: !1280, isLocal: false, isDefinition: false, flags: DIFlagPrototyped, isOptimized: false)
!1356 = !DIImportedEntity(tag: DW_TAG_imported_declaration, scope: !34, entity: !1357, file: !1282, line: 1078)
!1357 = !DISubprogram(name: "atanhf", scope: !1274, file: !1274, line: 716, type: !1341, isLocal: false, isDefinition: false, flags: DIFlagPrototyped, isOptimized: false)
!1358 = !DIImportedEntity(tag: DW_TAG_imported_declaration, scope: !34, entity: !1359, file: !1282, line: 1079)
!1359 = !DISubprogram(name: "atanhl", scope: !1274, file: !1274, line: 717, type: !1345, isLocal: false, isDefinition: false, flags: DIFlagPrototyped, isOptimized: false)
!1360 = !DIImportedEntity(tag: DW_TAG_imported_declaration, scope: !34, entity: !1361, file: !1282, line: 1081)
!1361 = !DISubprogram(name: "cbrt", scope: !1274, file: !1274, line: 877, type: !1280, isLocal: false, isDefinition: false, flags: DIFlagPrototyped, isOptimized: false)
!1362 = !DIImportedEntity(tag: DW_TAG_imported_declaration, scope: !34, entity: !1363, file: !1282, line: 1082)
!1363 = !DISubprogram(name: "cbrtf", scope: !1274, file: !1274, line: 878, type: !1341, isLocal: false, isDefinition: false, flags: DIFlagPrototyped, isOptimized: false)
!1364 = !DIImportedEntity(tag: DW_TAG_imported_declaration, scope: !34, entity: !1365, file: !1282, line: 1083)
!1365 = !DISubprogram(name: "cbrtl", scope: !1274, file: !1274, line: 879, type: !1345, isLocal: false, isDefinition: false, flags: DIFlagPrototyped, isOptimized: false)
!1366 = !DIImportedEntity(tag: DW_TAG_imported_declaration, scope: !34, entity: !1367, file: !1282, line: 1085)
!1367 = !DISubprogram(name: "copysign", scope: !1274, file: !1274, line: 1063, type: !1289, isLocal: false, isDefinition: false, flags: DIFlagPrototyped, isOptimized: false)
!1368 = !DIImportedEntity(tag: DW_TAG_imported_declaration, scope: !34, entity: !1369, file: !1282, line: 1086)
!1369 = !DISubprogram(name: "copysignf", scope: !1274, file: !1274, line: 1064, type: !1370, isLocal: false, isDefinition: false, flags: DIFlagPrototyped, isOptimized: false)
!1370 = !DISubroutineType(types: !1371)
!1371 = !{!1147, !1147, !1147}
!1372 = !DIImportedEntity(tag: DW_TAG_imported_declaration, scope: !34, entity: !1373, file: !1282, line: 1087)
!1373 = !DISubprogram(name: "copysignl", scope: !1274, file: !1274, line: 1065, type: !1374, isLocal: false, isDefinition: false, flags: DIFlagPrototyped, isOptimized: false)
!1374 = !DISubroutineType(types: !1375)
!1375 = !{!1347, !1347, !1347}
!1376 = !DIImportedEntity(tag: DW_TAG_imported_declaration, scope: !34, entity: !1377, file: !1282, line: 1089)
!1377 = !DISubprogram(name: "erf", scope: !1274, file: !1274, line: 901, type: !1280, isLocal: false, isDefinition: false, flags: DIFlagPrototyped, isOptimized: false)
!1378 = !DIImportedEntity(tag: DW_TAG_imported_declaration, scope: !34, entity: !1379, file: !1282, line: 1090)
!1379 = !DISubprogram(name: "erff", scope: !1274, file: !1274, line: 902, type: !1341, isLocal: false, isDefinition: false, flags: DIFlagPrototyped, isOptimized: false)
!1380 = !DIImportedEntity(tag: DW_TAG_imported_declaration, scope: !34, entity: !1381, file: !1282, line: 1091)
!1381 = !DISubprogram(name: "erfl", scope: !1274, file: !1274, line: 903, type: !1345, isLocal: false, isDefinition: false, flags: DIFlagPrototyped, isOptimized: false)
!1382 = !DIImportedEntity(tag: DW_TAG_imported_declaration, scope: !34, entity: !1383, file: !1282, line: 1093)
!1383 = !DISubprogram(name: "erfc", scope: !1274, file: !1274, line: 906, type: !1280, isLocal: false, isDefinition: false, flags: DIFlagPrototyped, isOptimized: false)
!1384 = !DIImportedEntity(tag: DW_TAG_imported_declaration, scope: !34, entity: !1385, file: !1282, line: 1094)
!1385 = !DISubprogram(name: "erfcf", scope: !1274, file: !1274, line: 907, type: !1341, isLocal: false, isDefinition: false, flags: DIFlagPrototyped, isOptimized: false)
!1386 = !DIImportedEntity(tag: DW_TAG_imported_declaration, scope: !34, entity: !1387, file: !1282, line: 1095)
!1387 = !DISubprogram(name: "erfcl", scope: !1274, file: !1274, line: 908, type: !1345, isLocal: false, isDefinition: false, flags: DIFlagPrototyped, isOptimized: false)
!1388 = !DIImportedEntity(tag: DW_TAG_imported_declaration, scope: !34, entity: !1389, file: !1282, line: 1097)
!1389 = !DISubprogram(name: "exp2", scope: !1274, file: !1274, line: 728, type: !1280, isLocal: false, isDefinition: false, flags: DIFlagPrototyped, isOptimized: false)
!1390 = !DIImportedEntity(tag: DW_TAG_imported_declaration, scope: !34, entity: !1391, file: !1282, line: 1098)
!1391 = !DISubprogram(name: "exp2f", scope: !1274, file: !1274, line: 729, type: !1341, isLocal: false, isDefinition: false, flags: DIFlagPrototyped, isOptimized: false)
!1392 = !DIImportedEntity(tag: DW_TAG_imported_declaration, scope: !34, entity: !1393, file: !1282, line: 1099)
!1393 = !DISubprogram(name: "exp2l", scope: !1274, file: !1274, line: 730, type: !1345, isLocal: false, isDefinition: false, flags: DIFlagPrototyped, isOptimized: false)
!1394 = !DIImportedEntity(tag: DW_TAG_imported_declaration, scope: !34, entity: !1395, file: !1282, line: 1101)
!1395 = !DISubprogram(name: "expm1", scope: !1274, file: !1274, line: 734, type: !1280, isLocal: false, isDefinition: false, flags: DIFlagPrototyped, isOptimized: false)
!1396 = !DIImportedEntity(tag: DW_TAG_imported_declaration, scope: !34, entity: !1397, file: !1282, line: 1102)
!1397 = !DISubprogram(name: "expm1f", scope: !1274, file: !1274, line: 735, type: !1341, isLocal: false, isDefinition: false, flags: DIFlagPrototyped, isOptimized: false)
!1398 = !DIImportedEntity(tag: DW_TAG_imported_declaration, scope: !34, entity: !1399, file: !1282, line: 1103)
!1399 = !DISubprogram(name: "expm1l", scope: !1274, file: !1274, line: 736, type: !1345, isLocal: false, isDefinition: false, flags: DIFlagPrototyped, isOptimized: false)
!1400 = !DIImportedEntity(tag: DW_TAG_imported_declaration, scope: !34, entity: !1401, file: !1282, line: 1105)
!1401 = !DISubprogram(name: "fdim", scope: !1274, file: !1274, line: 1109, type: !1289, isLocal: false, isDefinition: false, flags: DIFlagPrototyped, isOptimized: false)
!1402 = !DIImportedEntity(tag: DW_TAG_imported_declaration, scope: !34, entity: !1403, file: !1282, line: 1106)
!1403 = !DISubprogram(name: "fdimf", scope: !1274, file: !1274, line: 1110, type: !1370, isLocal: false, isDefinition: false, flags: DIFlagPrototyped, isOptimized: false)
!1404 = !DIImportedEntity(tag: DW_TAG_imported_declaration, scope: !34, entity: !1405, file: !1282, line: 1107)
!1405 = !DISubprogram(name: "fdiml", scope: !1274, file: !1274, line: 1111, type: !1374, isLocal: false, isDefinition: false, flags: DIFlagPrototyped, isOptimized: false)
!1406 = !DIImportedEntity(tag: DW_TAG_imported_declaration, scope: !34, entity: !1407, file: !1282, line: 1109)
!1407 = !DISubprogram(name: "fma", scope: !1274, file: !1274, line: 1130, type: !1408, isLocal: false, isDefinition: false, flags: DIFlagPrototyped, isOptimized: false)
!1408 = !DISubroutineType(types: !1409)
!1409 = !{!22, !22, !22, !22}
!1410 = !DIImportedEntity(tag: DW_TAG_imported_declaration, scope: !34, entity: !1411, file: !1282, line: 1110)
!1411 = !DISubprogram(name: "fmaf", scope: !1274, file: !1274, line: 1131, type: !1412, isLocal: false, isDefinition: false, flags: DIFlagPrototyped, isOptimized: false)
!1412 = !DISubroutineType(types: !1413)
!1413 = !{!1147, !1147, !1147, !1147}
!1414 = !DIImportedEntity(tag: DW_TAG_imported_declaration, scope: !34, entity: !1415, file: !1282, line: 1111)
!1415 = !DISubprogram(name: "fmal", scope: !1274, file: !1274, line: 1132, type: !1416, isLocal: false, isDefinition: false, flags: DIFlagPrototyped, isOptimized: false)
!1416 = !DISubroutineType(types: !1417)
!1417 = !{!1347, !1347, !1347, !1347}
!1418 = !DIImportedEntity(tag: DW_TAG_imported_declaration, scope: !34, entity: !1419, file: !1282, line: 1113)
!1419 = !DISubprogram(name: "fmax", scope: !1274, file: !1274, line: 1119, type: !1289, isLocal: false, isDefinition: false, flags: DIFlagPrototyped, isOptimized: false)
!1420 = !DIImportedEntity(tag: DW_TAG_imported_declaration, scope: !34, entity: !1421, file: !1282, line: 1114)
!1421 = !DISubprogram(name: "fmaxf", scope: !1274, file: !1274, line: 1120, type: !1370, isLocal: false, isDefinition: false, flags: DIFlagPrototyped, isOptimized: false)
!1422 = !DIImportedEntity(tag: DW_TAG_imported_declaration, scope: !34, entity: !1423, file: !1282, line: 1115)
!1423 = !DISubprogram(name: "fmaxl", scope: !1274, file: !1274, line: 1121, type: !1374, isLocal: false, isDefinition: false, flags: DIFlagPrototyped, isOptimized: false)
!1424 = !DIImportedEntity(tag: DW_TAG_imported_declaration, scope: !34, entity: !1425, file: !1282, line: 1117)
!1425 = !DISubprogram(name: "fmin", scope: !1274, file: !1274, line: 1124, type: !1289, isLocal: false, isDefinition: false, flags: DIFlagPrototyped, isOptimized: false)
!1426 = !DIImportedEntity(tag: DW_TAG_imported_declaration, scope: !34, entity: !1427, file: !1282, line: 1118)
!1427 = !DISubprogram(name: "fminf", scope: !1274, file: !1274, line: 1125, type: !1370, isLocal: false, isDefinition: false, flags: DIFlagPrototyped, isOptimized: false)
!1428 = !DIImportedEntity(tag: DW_TAG_imported_declaration, scope: !34, entity: !1429, file: !1282, line: 1119)
!1429 = !DISubprogram(name: "fminl", scope: !1274, file: !1274, line: 1126, type: !1374, isLocal: false, isDefinition: false, flags: DIFlagPrototyped, isOptimized: false)
!1430 = !DIImportedEntity(tag: DW_TAG_imported_declaration, scope: !34, entity: !1431, file: !1282, line: 1121)
!1431 = !DISubprogram(name: "hypot", scope: !1274, file: !1274, line: 882, type: !1289, isLocal: false, isDefinition: false, flags: DIFlagPrototyped, isOptimized: false)
!1432 = !DIImportedEntity(tag: DW_TAG_imported_declaration, scope: !34, entity: !1433, file: !1282, line: 1122)
!1433 = !DISubprogram(name: "hypotf", scope: !1274, file: !1274, line: 883, type: !1370, isLocal: false, isDefinition: false, flags: DIFlagPrototyped, isOptimized: false)
!1434 = !DIImportedEntity(tag: DW_TAG_imported_declaration, scope: !34, entity: !1435, file: !1282, line: 1123)
!1435 = !DISubprogram(name: "hypotl", scope: !1274, file: !1274, line: 887, type: !1374, isLocal: false, isDefinition: false, flags: DIFlagPrototyped, isOptimized: false)
!1436 = !DIImportedEntity(tag: DW_TAG_imported_declaration, scope: !34, entity: !1437, file: !1282, line: 1125)
!1437 = !DISubprogram(name: "ilogb", scope: !1274, file: !1274, line: 748, type: !1438, isLocal: false, isDefinition: false, flags: DIFlagPrototyped, isOptimized: false)
!1438 = !DISubroutineType(types: !1439)
!1439 = !{!91, !22}
!1440 = !DIImportedEntity(tag: DW_TAG_imported_declaration, scope: !34, entity: !1441, file: !1282, line: 1126)
!1441 = !DISubprogram(name: "ilogbf", scope: !1274, file: !1274, line: 749, type: !1442, isLocal: false, isDefinition: false, flags: DIFlagPrototyped, isOptimized: false)
!1442 = !DISubroutineType(types: !1443)
!1443 = !{!91, !1147}
!1444 = !DIImportedEntity(tag: DW_TAG_imported_declaration, scope: !34, entity: !1445, file: !1282, line: 1127)
!1445 = !DISubprogram(name: "ilogbl", scope: !1274, file: !1274, line: 750, type: !1446, isLocal: false, isDefinition: false, flags: DIFlagPrototyped, isOptimized: false)
!1446 = !DISubroutineType(types: !1447)
!1447 = !{!91, !1347}
!1448 = !DIImportedEntity(tag: DW_TAG_imported_declaration, scope: !34, entity: !1449, file: !1282, line: 1129)
!1449 = !DISubprogram(name: "lgamma", scope: !1274, file: !1274, line: 911, type: !1280, isLocal: false, isDefinition: false, flags: DIFlagPrototyped, isOptimized: false)
!1450 = !DIImportedEntity(tag: DW_TAG_imported_declaration, scope: !34, entity: !1451, file: !1282, line: 1130)
!1451 = !DISubprogram(name: "lgammaf", scope: !1274, file: !1274, line: 912, type: !1341, isLocal: false, isDefinition: false, flags: DIFlagPrototyped, isOptimized: false)
!1452 = !DIImportedEntity(tag: DW_TAG_imported_declaration, scope: !34, entity: !1453, file: !1282, line: 1131)
!1453 = !DISubprogram(name: "lgammal", scope: !1274, file: !1274, line: 913, type: !1345, isLocal: false, isDefinition: false, flags: DIFlagPrototyped, isOptimized: false)
!1454 = !DIImportedEntity(tag: DW_TAG_imported_declaration, scope: !34, entity: !1455, file: !1282, line: 1134)
!1455 = !DISubprogram(name: "llrint", scope: !1274, file: !1274, line: 946, type: !1456, isLocal: false, isDefinition: false, flags: DIFlagPrototyped, isOptimized: false)
!1456 = !DISubroutineType(types: !1457)
!1457 = !{!1458, !22}
!1458 = !DIBasicType(name: "long long int", size: 64, encoding: DW_ATE_signed)
!1459 = !DIImportedEntity(tag: DW_TAG_imported_declaration, scope: !34, entity: !1460, file: !1282, line: 1135)
!1460 = !DISubprogram(name: "llrintf", scope: !1274, file: !1274, line: 947, type: !1461, isLocal: false, isDefinition: false, flags: DIFlagPrototyped, isOptimized: false)
!1461 = !DISubroutineType(types: !1462)
!1462 = !{!1458, !1147}
!1463 = !DIImportedEntity(tag: DW_TAG_imported_declaration, scope: !34, entity: !1464, file: !1282, line: 1136)
!1464 = !DISubprogram(name: "llrintl", scope: !1274, file: !1274, line: 948, type: !1465, isLocal: false, isDefinition: false, flags: DIFlagPrototyped, isOptimized: false)
!1465 = !DISubroutineType(types: !1466)
!1466 = !{!1458, !1347}
!1467 = !DIImportedEntity(tag: DW_TAG_imported_declaration, scope: !34, entity: !1468, file: !1282, line: 1138)
!1468 = !DISubprogram(name: "llround", scope: !1274, file: !1274, line: 1038, type: !1456, isLocal: false, isDefinition: false, flags: DIFlagPrototyped, isOptimized: false)
!1469 = !DIImportedEntity(tag: DW_TAG_imported_declaration, scope: !34, entity: !1470, file: !1282, line: 1139)
!1470 = !DISubprogram(name: "llroundf", scope: !1274, file: !1274, line: 1039, type: !1461, isLocal: false, isDefinition: false, flags: DIFlagPrototyped, isOptimized: false)
!1471 = !DIImportedEntity(tag: DW_TAG_imported_declaration, scope: !34, entity: !1472, file: !1282, line: 1140)
!1472 = !DISubprogram(name: "llroundl", scope: !1274, file: !1274, line: 1040, type: !1465, isLocal: false, isDefinition: false, flags: DIFlagPrototyped, isOptimized: false)
!1473 = !DIImportedEntity(tag: DW_TAG_imported_declaration, scope: !34, entity: !1474, file: !1282, line: 1143)
!1474 = !DISubprogram(name: "log1p", scope: !1274, file: !1274, line: 768, type: !1280, isLocal: false, isDefinition: false, flags: DIFlagPrototyped, isOptimized: false)
!1475 = !DIImportedEntity(tag: DW_TAG_imported_declaration, scope: !34, entity: !1476, file: !1282, line: 1144)
!1476 = !DISubprogram(name: "log1pf", scope: !1274, file: !1274, line: 769, type: !1341, isLocal: false, isDefinition: false, flags: DIFlagPrototyped, isOptimized: false)
!1477 = !DIImportedEntity(tag: DW_TAG_imported_declaration, scope: !34, entity: !1478, file: !1282, line: 1145)
!1478 = !DISubprogram(name: "log1pl", scope: !1274, file: !1274, line: 770, type: !1345, isLocal: false, isDefinition: false, flags: DIFlagPrototyped, isOptimized: false)
!1479 = !DIImportedEntity(tag: DW_TAG_imported_declaration, scope: !34, entity: !1480, file: !1282, line: 1147)
!1480 = !DISubprogram(name: "log2", scope: !1274, file: !1274, line: 773, type: !1280, isLocal: false, isDefinition: false, flags: DIFlagPrototyped, isOptimized: false)
!1481 = !DIImportedEntity(tag: DW_TAG_imported_declaration, scope: !34, entity: !1482, file: !1282, line: 1148)
!1482 = !DISubprogram(name: "log2f", scope: !1274, file: !1274, line: 774, type: !1341, isLocal: false, isDefinition: false, flags: DIFlagPrototyped, isOptimized: false)
!1483 = !DIImportedEntity(tag: DW_TAG_imported_declaration, scope: !34, entity: !1484, file: !1282, line: 1149)
!1484 = !DISubprogram(name: "log2l", scope: !1274, file: !1274, line: 775, type: !1345, isLocal: false, isDefinition: false, flags: DIFlagPrototyped, isOptimized: false)
!1485 = !DIImportedEntity(tag: DW_TAG_imported_declaration, scope: !34, entity: !1486, file: !1282, line: 1151)
!1486 = !DISubprogram(name: "logb", scope: !1274, file: !1274, line: 778, type: !1280, isLocal: false, isDefinition: false, flags: DIFlagPrototyped, isOptimized: false)
!1487 = !DIImportedEntity(tag: DW_TAG_imported_declaration, scope: !34, entity: !1488, file: !1282, line: 1152)
!1488 = !DISubprogram(name: "logbf", scope: !1274, file: !1274, line: 779, type: !1341, isLocal: false, isDefinition: false, flags: DIFlagPrototyped, isOptimized: false)
!1489 = !DIImportedEntity(tag: DW_TAG_imported_declaration, scope: !34, entity: !1490, file: !1282, line: 1153)
!1490 = !DISubprogram(name: "logbl", scope: !1274, file: !1274, line: 780, type: !1345, isLocal: false, isDefinition: false, flags: DIFlagPrototyped, isOptimized: false)
!1491 = !DIImportedEntity(tag: DW_TAG_imported_declaration, scope: !34, entity: !1492, file: !1282, line: 1155)
!1492 = !DISubprogram(name: "lrint", scope: !1274, file: !1274, line: 942, type: !1493, isLocal: false, isDefinition: false, flags: DIFlagPrototyped, isOptimized: false)
!1493 = !DISubroutineType(types: !1494)
!1494 = !{!136, !22}
!1495 = !DIImportedEntity(tag: DW_TAG_imported_declaration, scope: !34, entity: !1496, file: !1282, line: 1156)
!1496 = !DISubprogram(name: "lrintf", scope: !1274, file: !1274, line: 943, type: !1497, isLocal: false, isDefinition: false, flags: DIFlagPrototyped, isOptimized: false)
!1497 = !DISubroutineType(types: !1498)
!1498 = !{!136, !1147}
!1499 = !DIImportedEntity(tag: DW_TAG_imported_declaration, scope: !34, entity: !1500, file: !1282, line: 1157)
!1500 = !DISubprogram(name: "lrintl", scope: !1274, file: !1274, line: 944, type: !1501, isLocal: false, isDefinition: false, flags: DIFlagPrototyped, isOptimized: false)
!1501 = !DISubroutineType(types: !1502)
!1502 = !{!136, !1347}
!1503 = !DIImportedEntity(tag: DW_TAG_imported_declaration, scope: !34, entity: !1504, file: !1282, line: 1159)
!1504 = !DISubprogram(name: "lround", scope: !1274, file: !1274, line: 1035, type: !1493, isLocal: false, isDefinition: false, flags: DIFlagPrototyped, isOptimized: false)
!1505 = !DIImportedEntity(tag: DW_TAG_imported_declaration, scope: !34, entity: !1506, file: !1282, line: 1160)
!1506 = !DISubprogram(name: "lroundf", scope: !1274, file: !1274, line: 1036, type: !1497, isLocal: false, isDefinition: false, flags: DIFlagPrototyped, isOptimized: false)
!1507 = !DIImportedEntity(tag: DW_TAG_imported_declaration, scope: !34, entity: !1508, file: !1282, line: 1161)
!1508 = !DISubprogram(name: "lroundl", scope: !1274, file: !1274, line: 1037, type: !1501, isLocal: false, isDefinition: false, flags: DIFlagPrototyped, isOptimized: false)
!1509 = !DIImportedEntity(tag: DW_TAG_imported_declaration, scope: !34, entity: !1510, file: !1282, line: 1163)
!1510 = !DISubprogram(name: "nan", scope: !1274, file: !1274, line: 1087, type: !1511, isLocal: false, isDefinition: false, flags: DIFlagPrototyped, isOptimized: false)
!1511 = !DISubroutineType(types: !1512)
!1512 = !{!22, !240}
!1513 = !DIImportedEntity(tag: DW_TAG_imported_declaration, scope: !34, entity: !1514, file: !1282, line: 1164)
!1514 = !DISubprogram(name: "nanf", scope: !1274, file: !1274, line: 1088, type: !1515, isLocal: false, isDefinition: false, flags: DIFlagPrototyped, isOptimized: false)
!1515 = !DISubroutineType(types: !1516)
!1516 = !{!1147, !240}
!1517 = !DIImportedEntity(tag: DW_TAG_imported_declaration, scope: !34, entity: !1518, file: !1282, line: 1165)
!1518 = !DISubprogram(name: "nanl", scope: !1274, file: !1274, line: 1089, type: !1519, isLocal: false, isDefinition: false, flags: DIFlagPrototyped, isOptimized: false)
!1519 = !DISubroutineType(types: !1520)
!1520 = !{!1347, !240}
!1521 = !DIImportedEntity(tag: DW_TAG_imported_declaration, scope: !34, entity: !1522, file: !1282, line: 1167)
!1522 = !DISubprogram(name: "nearbyint", scope: !1274, file: !1274, line: 931, type: !1280, isLocal: false, isDefinition: false, flags: DIFlagPrototyped, isOptimized: false)
!1523 = !DIImportedEntity(tag: DW_TAG_imported_declaration, scope: !34, entity: !1524, file: !1282, line: 1168)
!1524 = !DISubprogram(name: "nearbyintf", scope: !1274, file: !1274, line: 932, type: !1341, isLocal: false, isDefinition: false, flags: DIFlagPrototyped, isOptimized: false)
!1525 = !DIImportedEntity(tag: DW_TAG_imported_declaration, scope: !34, entity: !1526, file: !1282, line: 1169)
!1526 = !DISubprogram(name: "nearbyintl", scope: !1274, file: !1274, line: 933, type: !1345, isLocal: false, isDefinition: false, flags: DIFlagPrototyped, isOptimized: false)
!1527 = !DIImportedEntity(tag: DW_TAG_imported_declaration, scope: !34, entity: !1528, file: !1282, line: 1171)
!1528 = !DISubprogram(name: "nextafter", scope: !1274, file: !1274, line: 1098, type: !1289, isLocal: false, isDefinition: false, flags: DIFlagPrototyped, isOptimized: false)
!1529 = !DIImportedEntity(tag: DW_TAG_imported_declaration, scope: !34, entity: !1530, file: !1282, line: 1172)
!1530 = !DISubprogram(name: "nextafterf", scope: !1274, file: !1274, line: 1099, type: !1370, isLocal: false, isDefinition: false, flags: DIFlagPrototyped, isOptimized: false)
!1531 = !DIImportedEntity(tag: DW_TAG_imported_declaration, scope: !34, entity: !1532, file: !1282, line: 1173)
!1532 = !DISubprogram(name: "nextafterl", scope: !1274, file: !1274, line: 1100, type: !1374, isLocal: false, isDefinition: false, flags: DIFlagPrototyped, isOptimized: false)
!1533 = !DIImportedEntity(tag: DW_TAG_imported_declaration, scope: !34, entity: !1534, file: !1282, line: 1175)
!1534 = !DISubprogram(name: "nexttoward", scope: !1274, file: !1274, line: 1103, type: !1535, isLocal: false, isDefinition: false, flags: DIFlagPrototyped, isOptimized: false)
!1535 = !DISubroutineType(types: !1536)
!1536 = !{!22, !22, !1347}
!1537 = !DIImportedEntity(tag: DW_TAG_imported_declaration, scope: !34, entity: !1538, file: !1282, line: 1176)
!1538 = !DISubprogram(name: "nexttowardf", scope: !1274, file: !1274, line: 1104, type: !1539, isLocal: false, isDefinition: false, flags: DIFlagPrototyped, isOptimized: false)
!1539 = !DISubroutineType(types: !1540)
!1540 = !{!1147, !1147, !1347}
!1541 = !DIImportedEntity(tag: DW_TAG_imported_declaration, scope: !34, entity: !1542, file: !1282, line: 1177)
!1542 = !DISubprogram(name: "nexttowardl", scope: !1274, file: !1274, line: 1105, type: !1374, isLocal: false, isDefinition: false, flags: DIFlagPrototyped, isOptimized: false)
!1543 = !DIImportedEntity(tag: DW_TAG_imported_declaration, scope: !34, entity: !1544, file: !1282, line: 1179)
!1544 = !DISubprogram(name: "remainder", scope: !1274, file: !1274, line: 1053, type: !1289, isLocal: false, isDefinition: false, flags: DIFlagPrototyped, isOptimized: false)
!1545 = !DIImportedEntity(tag: DW_TAG_imported_declaration, scope: !34, entity: !1546, file: !1282, line: 1180)
!1546 = !DISubprogram(name: "remainderf", scope: !1274, file: !1274, line: 1054, type: !1370, isLocal: false, isDefinition: false, flags: DIFlagPrototyped, isOptimized: false)
!1547 = !DIImportedEntity(tag: DW_TAG_imported_declaration, scope: !34, entity: !1548, file: !1282, line: 1181)
!1548 = !DISubprogram(name: "remainderl", scope: !1274, file: !1274, line: 1055, type: !1374, isLocal: false, isDefinition: false, flags: DIFlagPrototyped, isOptimized: false)
!1549 = !DIImportedEntity(tag: DW_TAG_imported_declaration, scope: !34, entity: !1550, file: !1282, line: 1183)
!1550 = !DISubprogram(name: "remquo", scope: !1274, file: !1274, line: 1058, type: !1551, isLocal: false, isDefinition: false, flags: DIFlagPrototyped, isOptimized: false)
!1551 = !DISubroutineType(types: !1552)
!1552 = !{!22, !22, !22, !213}
!1553 = !DIImportedEntity(tag: DW_TAG_imported_declaration, scope: !34, entity: !1554, file: !1282, line: 1184)
!1554 = !DISubprogram(name: "remquof", scope: !1274, file: !1274, line: 1059, type: !1555, isLocal: false, isDefinition: false, flags: DIFlagPrototyped, isOptimized: false)
!1555 = !DISubroutineType(types: !1556)
!1556 = !{!1147, !1147, !1147, !213}
!1557 = !DIImportedEntity(tag: DW_TAG_imported_declaration, scope: !34, entity: !1558, file: !1282, line: 1185)
!1558 = !DISubprogram(name: "remquol", scope: !1274, file: !1274, line: 1060, type: !1559, isLocal: false, isDefinition: false, flags: DIFlagPrototyped, isOptimized: false)
!1559 = !DISubroutineType(types: !1560)
!1560 = !{!1347, !1347, !1347, !213}
!1561 = !DIImportedEntity(tag: DW_TAG_imported_declaration, scope: !34, entity: !1562, file: !1282, line: 1187)
!1562 = !DISubprogram(name: "rint", scope: !1274, file: !1274, line: 937, type: !1280, isLocal: false, isDefinition: false, flags: DIFlagPrototyped, isOptimized: false)
!1563 = !DIImportedEntity(tag: DW_TAG_imported_declaration, scope: !34, entity: !1564, file: !1282, line: 1188)
!1564 = !DISubprogram(name: "rintf", scope: !1274, file: !1274, line: 938, type: !1341, isLocal: false, isDefinition: false, flags: DIFlagPrototyped, isOptimized: false)
!1565 = !DIImportedEntity(tag: DW_TAG_imported_declaration, scope: !34, entity: !1566, file: !1282, line: 1189)
!1566 = !DISubprogram(name: "rintl", scope: !1274, file: !1274, line: 939, type: !1345, isLocal: false, isDefinition: false, flags: DIFlagPrototyped, isOptimized: false)
!1567 = !DIImportedEntity(tag: DW_TAG_imported_declaration, scope: !34, entity: !1568, file: !1282, line: 1191)
!1568 = !DISubprogram(name: "round", scope: !1274, file: !1274, line: 1030, type: !1280, isLocal: false, isDefinition: false, flags: DIFlagPrototyped, isOptimized: false)
!1569 = !DIImportedEntity(tag: DW_TAG_imported_declaration, scope: !34, entity: !1570, file: !1282, line: 1192)
!1570 = !DISubprogram(name: "roundf", scope: !1274, file: !1274, line: 1031, type: !1341, isLocal: false, isDefinition: false, flags: DIFlagPrototyped, isOptimized: false)
!1571 = !DIImportedEntity(tag: DW_TAG_imported_declaration, scope: !34, entity: !1572, file: !1282, line: 1193)
!1572 = !DISubprogram(name: "roundl", scope: !1274, file: !1274, line: 1032, type: !1345, isLocal: false, isDefinition: false, flags: DIFlagPrototyped, isOptimized: false)
!1573 = !DIImportedEntity(tag: DW_TAG_imported_declaration, scope: !34, entity: !1574, file: !1282, line: 1195)
!1574 = !DISubprogram(name: "scalbln", scope: !1274, file: !1274, line: 871, type: !1575, isLocal: false, isDefinition: false, flags: DIFlagPrototyped, isOptimized: false)
!1575 = !DISubroutineType(types: !1576)
!1576 = !{!22, !22, !136}
!1577 = !DIImportedEntity(tag: DW_TAG_imported_declaration, scope: !34, entity: !1578, file: !1282, line: 1196)
!1578 = !DISubprogram(name: "scalblnf", scope: !1274, file: !1274, line: 872, type: !1579, isLocal: false, isDefinition: false, flags: DIFlagPrototyped, isOptimized: false)
!1579 = !DISubroutineType(types: !1580)
!1580 = !{!1147, !1147, !136}
!1581 = !DIImportedEntity(tag: DW_TAG_imported_declaration, scope: !34, entity: !1582, file: !1282, line: 1197)
!1582 = !DISubprogram(name: "scalblnl", scope: !1274, file: !1274, line: 873, type: !1583, isLocal: false, isDefinition: false, flags: DIFlagPrototyped, isOptimized: false)
!1583 = !DISubroutineType(types: !1584)
!1584 = !{!1347, !1347, !136}
!1585 = !DIImportedEntity(tag: DW_TAG_imported_declaration, scope: !34, entity: !1586, file: !1282, line: 1199)
!1586 = !DISubprogram(name: "scalbn", scope: !1274, file: !1274, line: 867, type: !1311, isLocal: false, isDefinition: false, flags: DIFlagPrototyped, isOptimized: false)
!1587 = !DIImportedEntity(tag: DW_TAG_imported_declaration, scope: !34, entity: !1588, file: !1282, line: 1200)
!1588 = !DISubprogram(name: "scalbnf", scope: !1274, file: !1274, line: 868, type: !1589, isLocal: false, isDefinition: false, flags: DIFlagPrototyped, isOptimized: false)
!1589 = !DISubroutineType(types: !1590)
!1590 = !{!1147, !1147, !91}
!1591 = !DIImportedEntity(tag: DW_TAG_imported_declaration, scope: !34, entity: !1592, file: !1282, line: 1201)
!1592 = !DISubprogram(name: "scalbnl", scope: !1274, file: !1274, line: 869, type: !1593, isLocal: false, isDefinition: false, flags: DIFlagPrototyped, isOptimized: false)
!1593 = !DISubroutineType(types: !1594)
!1594 = !{!1347, !1347, !91}
!1595 = !DIImportedEntity(tag: DW_TAG_imported_declaration, scope: !34, entity: !1596, file: !1282, line: 1203)
!1596 = !DISubprogram(name: "tgamma", scope: !1274, file: !1274, line: 918, type: !1280, isLocal: false, isDefinition: false, flags: DIFlagPrototyped, isOptimized: false)
!1597 = !DIImportedEntity(tag: DW_TAG_imported_declaration, scope: !34, entity: !1598, file: !1282, line: 1204)
!1598 = !DISubprogram(name: "tgammaf", scope: !1274, file: !1274, line: 919, type: !1341, isLocal: false, isDefinition: false, flags: DIFlagPrototyped, isOptimized: false)
!1599 = !DIImportedEntity(tag: DW_TAG_imported_declaration, scope: !34, entity: !1600, file: !1282, line: 1205)
!1600 = !DISubprogram(name: "tgammal", scope: !1274, file: !1274, line: 920, type: !1345, isLocal: false, isDefinition: false, flags: DIFlagPrototyped, isOptimized: false)
!1601 = !DIImportedEntity(tag: DW_TAG_imported_declaration, scope: !34, entity: !1602, file: !1282, line: 1207)
!1602 = !DISubprogram(name: "trunc", scope: !1274, file: !1274, line: 1044, type: !1280, isLocal: false, isDefinition: false, flags: DIFlagPrototyped, isOptimized: false)
!1603 = !DIImportedEntity(tag: DW_TAG_imported_declaration, scope: !34, entity: !1604, file: !1282, line: 1208)
!1604 = !DISubprogram(name: "truncf", scope: !1274, file: !1274, line: 1045, type: !1341, isLocal: false, isDefinition: false, flags: DIFlagPrototyped, isOptimized: false)
!1605 = !DIImportedEntity(tag: DW_TAG_imported_declaration, scope: !34, entity: !1606, file: !1282, line: 1209)
!1606 = !DISubprogram(name: "truncl", scope: !1274, file: !1274, line: 1046, type: !1345, isLocal: false, isDefinition: false, flags: DIFlagPrototyped, isOptimized: false)
!1607 = !DIImportedEntity(tag: DW_TAG_imported_declaration, scope: !34, entity: !1608, file: !1611, line: 127)
!1608 = !DIDerivedType(tag: DW_TAG_typedef, name: "div_t", file: !1609, line: 62, baseType: !1610)
!1609 = !DIFile(filename: "C:/Xilinx/Vitis_HLS/2023.2/tps/mingw/8.3.0/win64.o/nt\5Cx86_64-w64-mingw32\5Cinclude\5Cstdlib.h", directory: "C:\5CVitis_Libraries\5Cquantitative_finance\5CL1\5Ctests\5Cpca")
!1610 = distinct !DICompositeType(tag: DW_TAG_structure_type, name: "_div_t", file: !1609, line: 59, size: 64, align: 32, flags: DIFlagFwdDecl, identifier: "_ZTS6_div_t")
!1611 = !DIFile(filename: "C:/Xilinx/Vitis_HLS/2023.2/tps/mingw/8.3.0/win64.o/nt\5Clib\5Cgcc\5Cx86_64-w64-mingw32\5C8.3.0\5Cinclude\5Cc++\5Ccstdlib", directory: "C:\5CVitis_Libraries\5Cquantitative_finance\5CL1\5Ctests\5Cpca")
!1612 = !DIImportedEntity(tag: DW_TAG_imported_declaration, scope: !34, entity: !1613, file: !1611, line: 128)
!1613 = !DIDerivedType(tag: DW_TAG_typedef, name: "ldiv_t", file: !1609, line: 67, baseType: !1614)
!1614 = distinct !DICompositeType(tag: DW_TAG_structure_type, name: "_ldiv_t", file: !1609, line: 64, size: 128, flags: DIFlagTypePassByValue, elements: !1615, identifier: "_ZTS7_ldiv_t")
!1615 = !{!1616, !1617}
!1616 = !DIDerivedType(tag: DW_TAG_member, name: "quot", scope: !1614, file: !1609, line: 65, baseType: !136, size: 64)
!1617 = !DIDerivedType(tag: DW_TAG_member, name: "rem", scope: !1614, file: !1609, line: 66, baseType: !136, size: 64, offset: 64)
!1618 = !DIImportedEntity(tag: DW_TAG_imported_declaration, scope: !34, entity: !1619, file: !1611, line: 130)
!1619 = !DISubprogram(name: "abort", scope: !1609, file: !1609, line: 374, type: !225, isLocal: false, isDefinition: false, flags: DIFlagPrototyped | DIFlagNoReturn, isOptimized: false)
!1620 = !DIImportedEntity(tag: DW_TAG_imported_declaration, scope: !34, entity: !1621, file: !1611, line: 134)
!1621 = !DISubprogram(name: "atexit", scope: !1609, file: !1609, line: 394, type: !1622, isLocal: false, isDefinition: false, flags: DIFlagPrototyped, isOptimized: false)
!1622 = !DISubroutineType(types: !1623)
!1623 = !{!91, !1624}
!1624 = !DIDerivedType(tag: DW_TAG_pointer_type, baseType: !225, size: 64)
!1625 = !DIImportedEntity(tag: DW_TAG_imported_declaration, scope: !34, entity: !1626, file: !1611, line: 140)
!1626 = !DISubprogram(name: "atof", scope: !1274, file: !1274, line: 259, type: !1511, isLocal: false, isDefinition: false, flags: DIFlagPrototyped, isOptimized: false)
!1627 = !DIImportedEntity(tag: DW_TAG_imported_declaration, scope: !34, entity: !1628, file: !1611, line: 141)
!1628 = !DISubprogram(name: "atoi", scope: !1609, file: !1609, line: 400, type: !1629, isLocal: false, isDefinition: false, flags: DIFlagPrototyped, isOptimized: false)
!1629 = !DISubroutineType(types: !1630)
!1630 = !{!91, !240}
!1631 = !DIImportedEntity(tag: DW_TAG_imported_declaration, scope: !34, entity: !1632, file: !1611, line: 142)
!1632 = !DISubprogram(name: "atol", scope: !1609, file: !1609, line: 402, type: !1633, isLocal: false, isDefinition: false, flags: DIFlagPrototyped, isOptimized: false)
!1633 = !DISubroutineType(types: !1634)
!1634 = !{!136, !240}
!1635 = !DIImportedEntity(tag: DW_TAG_imported_declaration, scope: !34, entity: !1636, file: !1611, line: 143)
!1636 = !DISubprogram(name: "bsearch", scope: !1609, file: !1609, line: 406, type: !1637, isLocal: false, isDefinition: false, flags: DIFlagPrototyped, isOptimized: false)
!1637 = !DISubroutineType(types: !1638)
!1638 = !{!170, !449, !449, !1639, !1639, !1641}
!1639 = !DIDerivedType(tag: DW_TAG_typedef, name: "size_t", file: !1640, line: 35, baseType: !232)
!1640 = !DIFile(filename: "C:/Xilinx/Vitis_HLS/2023.2/tps/mingw/8.3.0/win64.o/nt\5Cx86_64-w64-mingw32\5Cinclude\5Ccrtdefs.h", directory: "C:\5CVitis_Libraries\5Cquantitative_finance\5CL1\5Ctests\5Cpca")
!1641 = !DIDerivedType(tag: DW_TAG_pointer_type, baseType: !1642, size: 64)
!1642 = !DISubroutineType(types: !1643)
!1643 = !{!91, !449, !449}
!1644 = !DIImportedEntity(tag: DW_TAG_imported_declaration, scope: !34, entity: !1645, file: !1611, line: 144)
!1645 = !DISubprogram(name: "calloc", scope: !1609, file: !1609, line: 501, type: !1646, isLocal: false, isDefinition: false, flags: DIFlagPrototyped, isOptimized: false)
!1646 = !DISubroutineType(types: !1647)
!1647 = !{!170, !1639, !1639}
!1648 = !DIImportedEntity(tag: DW_TAG_imported_declaration, scope: !34, entity: !1649, file: !1611, line: 145)
!1649 = !DISubprogram(name: "div", scope: !1609, file: !1609, line: 412, type: !1650, isLocal: false, isDefinition: false, flags: DIFlagPrototyped, isOptimized: false)
!1650 = !DISubroutineType(types: !1651)
!1651 = !{!1608, !91, !91}
!1652 = !DIImportedEntity(tag: DW_TAG_imported_declaration, scope: !34, entity: !1653, file: !1611, line: 146)
!1653 = !DISubprogram(name: "exit", scope: !1609, file: !1609, line: 360, type: !1654, isLocal: false, isDefinition: false, flags: DIFlagPrototyped | DIFlagNoReturn, isOptimized: false)
!1654 = !DISubroutineType(types: !1655)
!1655 = !{null, !91}
!1656 = !DIImportedEntity(tag: DW_TAG_imported_declaration, scope: !34, entity: !1657, file: !1611, line: 147)
!1657 = !DISubprogram(name: "free", scope: !1609, file: !1609, line: 502, type: !1658, isLocal: false, isDefinition: false, flags: DIFlagPrototyped, isOptimized: false)
!1658 = !DISubroutineType(types: !1659)
!1659 = !{null, !170}
!1660 = !DIImportedEntity(tag: DW_TAG_imported_declaration, scope: !34, entity: !1661, file: !1611, line: 148)
!1661 = !DISubprogram(name: "getenv", scope: !1609, file: !1609, line: 413, type: !1662, isLocal: false, isDefinition: false, flags: DIFlagPrototyped, isOptimized: false)
!1662 = !DISubroutineType(types: !1663)
!1663 = !{!296, !240}
!1664 = !DIImportedEntity(tag: DW_TAG_imported_declaration, scope: !34, entity: !1665, file: !1611, line: 149)
!1665 = !DISubprogram(name: "labs", scope: !1274, file: !1274, line: 255, type: !1666, isLocal: false, isDefinition: false, flags: DIFlagPrototyped, isOptimized: false)
!1666 = !DISubroutineType(types: !1667)
!1667 = !{!136, !136}
!1668 = !DIImportedEntity(tag: DW_TAG_imported_declaration, scope: !34, entity: !1669, file: !1611, line: 150)
!1669 = !DISubprogram(name: "ldiv", scope: !1609, file: !1609, line: 423, type: !1670, isLocal: false, isDefinition: false, flags: DIFlagPrototyped, isOptimized: false)
!1670 = !DISubroutineType(types: !1671)
!1671 = !{!1613, !136, !136}
!1672 = !DIImportedEntity(tag: DW_TAG_imported_declaration, scope: !34, entity: !1673, file: !1611, line: 151)
!1673 = !DISubprogram(name: "malloc", scope: !1609, file: !1609, line: 503, type: !1674, isLocal: false, isDefinition: false, flags: DIFlagPrototyped, isOptimized: false)
!1674 = !DISubroutineType(types: !1675)
!1675 = !{!170, !1639}
!1676 = !DIImportedEntity(tag: DW_TAG_imported_declaration, scope: !34, entity: !1677, file: !1611, line: 153)
!1677 = !DISubprogram(name: "mblen", scope: !1609, file: !1609, line: 425, type: !1678, isLocal: false, isDefinition: false, flags: DIFlagPrototyped, isOptimized: false)
!1678 = !DISubroutineType(types: !1679)
!1679 = !{!91, !240, !1639}
!1680 = !DIImportedEntity(tag: DW_TAG_imported_declaration, scope: !34, entity: !1681, file: !1611, line: 154)
!1681 = !DISubprogram(name: "mbstowcs", scope: !1609, file: !1609, line: 433, type: !1682, isLocal: false, isDefinition: false, flags: DIFlagPrototyped, isOptimized: false)
!1682 = !DISubroutineType(types: !1683)
!1683 = !{!1639, !1684, !1687, !1639}
!1684 = !DIDerivedType(tag: DW_TAG_restrict_type, baseType: !1685)
!1685 = !DIDerivedType(tag: DW_TAG_pointer_type, baseType: !1686, size: 64)
!1686 = !DIBasicType(name: "wchar_t", size: 32, encoding: DW_ATE_signed)
!1687 = !DIDerivedType(tag: DW_TAG_restrict_type, baseType: !240)
!1688 = !DIImportedEntity(tag: DW_TAG_imported_declaration, scope: !34, entity: !1689, file: !1611, line: 155)
!1689 = !DISubprogram(name: "mbtowc", scope: !1609, file: !1609, line: 431, type: !1690, isLocal: false, isDefinition: false, flags: DIFlagPrototyped, isOptimized: false)
!1690 = !DISubroutineType(types: !1691)
!1691 = !{!91, !1684, !1687, !1639}
!1692 = !DIImportedEntity(tag: DW_TAG_imported_declaration, scope: !34, entity: !1693, file: !1611, line: 157)
!1693 = !DISubprogram(name: "qsort", scope: !1609, file: !1609, line: 407, type: !1694, isLocal: false, isDefinition: false, flags: DIFlagPrototyped, isOptimized: false)
!1694 = !DISubroutineType(types: !1695)
!1695 = !{null, !170, !1639, !1639, !1641}
!1696 = !DIImportedEntity(tag: DW_TAG_imported_declaration, scope: !34, entity: !1697, file: !1611, line: 163)
!1697 = !DISubprogram(name: "rand", scope: !1609, file: !1609, line: 436, type: !89, isLocal: false, isDefinition: false, flags: DIFlagPrototyped, isOptimized: false)
!1698 = !DIImportedEntity(tag: DW_TAG_imported_declaration, scope: !34, entity: !1699, file: !1611, line: 164)
!1699 = !DISubprogram(name: "realloc", scope: !1609, file: !1609, line: 504, type: !1700, isLocal: false, isDefinition: false, flags: DIFlagPrototyped, isOptimized: false)
!1700 = !DISubroutineType(types: !1701)
!1701 = !{!170, !170, !1639}
!1702 = !DIImportedEntity(tag: DW_TAG_imported_declaration, scope: !34, entity: !1703, file: !1611, line: 165)
!1703 = !DISubprogram(name: "srand", scope: !1609, file: !1609, line: 438, type: !1704, isLocal: false, isDefinition: false, flags: DIFlagPrototyped, isOptimized: false)
!1704 = !DISubroutineType(types: !1705)
!1705 = !{null, !19}
!1706 = !DIImportedEntity(tag: DW_TAG_imported_declaration, scope: !34, entity: !1707, file: !1611, line: 166)
!1707 = !DISubprogram(name: "strtod", scope: !1609, file: !1609, line: 450, type: !1708, isLocal: false, isDefinition: false, flags: DIFlagPrototyped, isOptimized: false)
!1708 = !DISubroutineType(types: !1709)
!1709 = !{!22, !1687, !1710}
!1710 = !DIDerivedType(tag: DW_TAG_restrict_type, baseType: !295)
!1711 = !DIImportedEntity(tag: DW_TAG_imported_declaration, scope: !34, entity: !1712, file: !1611, line: 167)
!1712 = !DISubprogram(name: "strtol", scope: !1609, file: !1609, line: 485, type: !1713, isLocal: false, isDefinition: false, flags: DIFlagPrototyped, isOptimized: false)
!1713 = !DISubroutineType(types: !1714)
!1714 = !{!136, !1687, !1710, !91}
!1715 = !DIImportedEntity(tag: DW_TAG_imported_declaration, scope: !34, entity: !1716, file: !1611, line: 168)
!1716 = !DISubprogram(name: "strtoul", scope: !1609, file: !1609, line: 487, type: !1717, isLocal: false, isDefinition: false, flags: DIFlagPrototyped, isOptimized: false)
!1717 = !DISubroutineType(types: !1718)
!1718 = !{!232, !1687, !1710, !91}
!1719 = !DIImportedEntity(tag: DW_TAG_imported_declaration, scope: !34, entity: !1720, file: !1611, line: 169)
!1720 = !DISubprogram(name: "system", scope: !1609, file: !1609, line: 491, type: !1629, isLocal: false, isDefinition: false, flags: DIFlagPrototyped, isOptimized: false)
!1721 = !DIImportedEntity(tag: DW_TAG_imported_declaration, scope: !34, entity: !1722, file: !1611, line: 171)
!1722 = !DISubprogram(name: "wcstombs", scope: !1609, file: !1609, line: 496, type: !1723, isLocal: false, isDefinition: false, flags: DIFlagPrototyped, isOptimized: false)
!1723 = !DISubroutineType(types: !1724)
!1724 = !{!1639, !1725, !1726, !1639}
!1725 = !DIDerivedType(tag: DW_TAG_restrict_type, baseType: !296)
!1726 = !DIDerivedType(tag: DW_TAG_restrict_type, baseType: !1727)
!1727 = !DIDerivedType(tag: DW_TAG_pointer_type, baseType: !1728, size: 64)
!1728 = !DIDerivedType(tag: DW_TAG_const_type, baseType: !1686)
!1729 = !DIImportedEntity(tag: DW_TAG_imported_declaration, scope: !34, entity: !1730, file: !1611, line: 172)
!1730 = !DISubprogram(name: "wctomb", scope: !1609, file: !1609, line: 494, type: !1731, isLocal: false, isDefinition: false, flags: DIFlagPrototyped, isOptimized: false)
!1731 = !DISubroutineType(types: !1732)
!1732 = !{!91, !296, !1686}
!1733 = !DIImportedEntity(tag: DW_TAG_imported_declaration, scope: !401, entity: !1734, file: !1611, line: 200)
!1734 = !DIDerivedType(tag: DW_TAG_typedef, name: "lldiv_t", file: !1609, line: 699, baseType: !1735)
!1735 = distinct !DICompositeType(tag: DW_TAG_structure_type, file: !1609, line: 699, size: 128, flags: DIFlagTypePassByValue, elements: !1736, identifier: "_ZTS7lldiv_t")
!1736 = !{!1737, !1738}
!1737 = !DIDerivedType(tag: DW_TAG_member, name: "quot", scope: !1735, file: !1609, line: 699, baseType: !1458, size: 64)
!1738 = !DIDerivedType(tag: DW_TAG_member, name: "rem", scope: !1735, file: !1609, line: 699, baseType: !1458, size: 64, offset: 64)
!1739 = !DIImportedEntity(tag: DW_TAG_imported_declaration, scope: !401, entity: !1740, file: !1611, line: 206)
!1740 = !DISubprogram(name: "_Exit", scope: !1609, file: !1609, line: 365, type: !1654, isLocal: false, isDefinition: false, flags: DIFlagPrototyped | DIFlagNoReturn, isOptimized: false)
!1741 = !DIImportedEntity(tag: DW_TAG_imported_declaration, scope: !401, entity: !1742, file: !1611, line: 210)
!1742 = !DISubprogram(name: "llabs", scope: !1609, file: !1609, line: 703, type: !1743, isLocal: false, isDefinition: false, flags: DIFlagPrototyped, isOptimized: false)
!1743 = !DISubroutineType(types: !1744)
!1744 = !{!1458, !1458}
!1745 = !DIImportedEntity(tag: DW_TAG_imported_declaration, scope: !401, entity: !1746, file: !1611, line: 216)
!1746 = !DISubprogram(name: "lldiv", scope: !1609, file: !1609, line: 701, type: !1747, isLocal: false, isDefinition: false, flags: DIFlagPrototyped, isOptimized: false)
!1747 = !DISubroutineType(types: !1748)
!1748 = !{!1734, !1458, !1458}
!1749 = !DIImportedEntity(tag: DW_TAG_imported_declaration, scope: !401, entity: !1750, file: !1611, line: 227)
!1750 = !DISubprogram(name: "atoll", scope: !1609, file: !1609, line: 712, type: !1751, isLocal: false, isDefinition: false, flags: DIFlagPrototyped, isOptimized: false)
!1751 = !DISubroutineType(types: !1752)
!1752 = !{!1458, !240}
!1753 = !DIImportedEntity(tag: DW_TAG_imported_declaration, scope: !401, entity: !1754, file: !1611, line: 228)
!1754 = !DISubprogram(name: "strtoll", scope: !1609, file: !1609, line: 708, type: !1755, isLocal: false, isDefinition: false, flags: DIFlagPrototyped, isOptimized: false)
!1755 = !DISubroutineType(types: !1756)
!1756 = !{!1458, !1687, !1710, !91}
!1757 = !DIImportedEntity(tag: DW_TAG_imported_declaration, scope: !401, entity: !1758, file: !1611, line: 229)
!1758 = !DISubprogram(name: "strtoull", scope: !1609, file: !1609, line: 709, type: !1759, isLocal: false, isDefinition: false, flags: DIFlagPrototyped, isOptimized: false)
!1759 = !DISubroutineType(types: !1760)
!1760 = !{!1220, !1687, !1710, !91}
!1761 = !DIImportedEntity(tag: DW_TAG_imported_declaration, scope: !401, entity: !1762, file: !1611, line: 231)
!1762 = !DISubprogram(name: "strtof", scope: !1609, file: !1609, line: 457, type: !1763, isLocal: false, isDefinition: false, flags: DIFlagPrototyped, isOptimized: false)
!1763 = !DISubroutineType(types: !1764)
!1764 = !{!1147, !1687, !1710}
!1765 = !DIImportedEntity(tag: DW_TAG_imported_declaration, scope: !401, entity: !1766, file: !1611, line: 232)
!1766 = !DISubprogram(name: "strtold", scope: !1609, file: !1609, line: 468, type: !1767, isLocal: false, isDefinition: false, flags: DIFlagPrototyped, isOptimized: false)
!1767 = !DISubroutineType(types: !1768)
!1768 = !{!1347, !1687, !1710}
!1769 = !DIImportedEntity(tag: DW_TAG_imported_declaration, scope: !34, entity: !1734, file: !1611, line: 240)
!1770 = !DIImportedEntity(tag: DW_TAG_imported_declaration, scope: !34, entity: !1740, file: !1611, line: 242)
!1771 = !DIImportedEntity(tag: DW_TAG_imported_declaration, scope: !34, entity: !1742, file: !1611, line: 244)
!1772 = !DIImportedEntity(tag: DW_TAG_imported_declaration, scope: !34, entity: !1773, file: !1611, line: 245)
!1773 = !DISubprogram(name: "div", linkageName: "_ZN9__gnu_cxx3divExx", scope: !401, file: !1611, line: 213, type: !1747, isLocal: false, isDefinition: false, flags: DIFlagPrototyped, isOptimized: false)
!1774 = !DIImportedEntity(tag: DW_TAG_imported_declaration, scope: !34, entity: !1746, file: !1611, line: 246)
!1775 = !DIImportedEntity(tag: DW_TAG_imported_declaration, scope: !34, entity: !1750, file: !1611, line: 248)
!1776 = !DIImportedEntity(tag: DW_TAG_imported_declaration, scope: !34, entity: !1762, file: !1611, line: 249)
!1777 = !DIImportedEntity(tag: DW_TAG_imported_declaration, scope: !34, entity: !1754, file: !1611, line: 250)
!1778 = !DIImportedEntity(tag: DW_TAG_imported_declaration, scope: !34, entity: !1758, file: !1611, line: 251)
!1779 = !DIImportedEntity(tag: DW_TAG_imported_declaration, scope: !34, entity: !1766, file: !1611, line: 252)
!1780 = !DIImportedEntity(tag: DW_TAG_imported_declaration, scope: !29, entity: !1619, file: !1781, line: 38)
!1781 = !DIFile(filename: "C:/Xilinx/Vitis_HLS/2023.2/tps/mingw/8.3.0/win64.o/nt\5Clib\5Cgcc\5Cx86_64-w64-mingw32\5C8.3.0\5Cinclude\5Cc++\5Cstdlib.h", directory: "C:\5CVitis_Libraries\5Cquantitative_finance\5CL1\5Ctests\5Cpca")
!1782 = !DIImportedEntity(tag: DW_TAG_imported_declaration, scope: !29, entity: !1621, file: !1781, line: 39)
!1783 = !DIImportedEntity(tag: DW_TAG_imported_declaration, scope: !29, entity: !1653, file: !1781, line: 40)
!1784 = !DIImportedEntity(tag: DW_TAG_imported_declaration, scope: !29, entity: !1608, file: !1781, line: 51)
!1785 = !DIImportedEntity(tag: DW_TAG_imported_declaration, scope: !29, entity: !1613, file: !1781, line: 52)
!1786 = !DIImportedEntity(tag: DW_TAG_imported_declaration, scope: !29, entity: !1787, file: !1781, line: 54)
!1787 = !DISubprogram(name: "abs", linkageName: "_ZSt3absn", scope: !34, file: !1277, line: 84, type: !1788, isLocal: false, isDefinition: false, flags: DIFlagPrototyped, isOptimized: false)
!1788 = !DISubroutineType(types: !1789)
!1789 = !{!1790, !1790}
!1790 = !DIBasicType(name: "__int128", size: 128, encoding: DW_ATE_signed)
!1791 = !DIImportedEntity(tag: DW_TAG_imported_declaration, scope: !29, entity: !1626, file: !1781, line: 55)
!1792 = !DIImportedEntity(tag: DW_TAG_imported_declaration, scope: !29, entity: !1628, file: !1781, line: 56)
!1793 = !DIImportedEntity(tag: DW_TAG_imported_declaration, scope: !29, entity: !1632, file: !1781, line: 57)
!1794 = !DIImportedEntity(tag: DW_TAG_imported_declaration, scope: !29, entity: !1636, file: !1781, line: 58)
!1795 = !DIImportedEntity(tag: DW_TAG_imported_declaration, scope: !29, entity: !1645, file: !1781, line: 59)
!1796 = !DIImportedEntity(tag: DW_TAG_imported_declaration, scope: !29, entity: !1773, file: !1781, line: 60)
!1797 = !DIImportedEntity(tag: DW_TAG_imported_declaration, scope: !29, entity: !1657, file: !1781, line: 61)
!1798 = !DIImportedEntity(tag: DW_TAG_imported_declaration, scope: !29, entity: !1661, file: !1781, line: 62)
!1799 = !DIImportedEntity(tag: DW_TAG_imported_declaration, scope: !29, entity: !1665, file: !1781, line: 63)
!1800 = !DIImportedEntity(tag: DW_TAG_imported_declaration, scope: !29, entity: !1669, file: !1781, line: 64)
!1801 = !DIImportedEntity(tag: DW_TAG_imported_declaration, scope: !29, entity: !1673, file: !1781, line: 65)
!1802 = !DIImportedEntity(tag: DW_TAG_imported_declaration, scope: !29, entity: !1677, file: !1781, line: 67)
!1803 = !DIImportedEntity(tag: DW_TAG_imported_declaration, scope: !29, entity: !1681, file: !1781, line: 68)
!1804 = !DIImportedEntity(tag: DW_TAG_imported_declaration, scope: !29, entity: !1689, file: !1781, line: 69)
!1805 = !DIImportedEntity(tag: DW_TAG_imported_declaration, scope: !29, entity: !1693, file: !1781, line: 71)
!1806 = !DIImportedEntity(tag: DW_TAG_imported_declaration, scope: !29, entity: !1697, file: !1781, line: 72)
!1807 = !DIImportedEntity(tag: DW_TAG_imported_declaration, scope: !29, entity: !1699, file: !1781, line: 73)
!1808 = !DIImportedEntity(tag: DW_TAG_imported_declaration, scope: !29, entity: !1703, file: !1781, line: 74)
!1809 = !DIImportedEntity(tag: DW_TAG_imported_declaration, scope: !29, entity: !1707, file: !1781, line: 75)
!1810 = !DIImportedEntity(tag: DW_TAG_imported_declaration, scope: !29, entity: !1712, file: !1781, line: 76)
!1811 = !DIImportedEntity(tag: DW_TAG_imported_declaration, scope: !29, entity: !1716, file: !1781, line: 77)
!1812 = !DIImportedEntity(tag: DW_TAG_imported_declaration, scope: !29, entity: !1720, file: !1781, line: 78)
!1813 = !DIImportedEntity(tag: DW_TAG_imported_declaration, scope: !29, entity: !1722, file: !1781, line: 80)
!1814 = !DIImportedEntity(tag: DW_TAG_imported_declaration, scope: !29, entity: !1730, file: !1781, line: 81)
!1815 = !DIImportedEntity(tag: DW_TAG_imported_declaration, scope: !34, entity: !1816, file: !1818, line: 64)
!1816 = !DIDerivedType(tag: DW_TAG_typedef, name: "mbstate_t", file: !1817, line: 1416, baseType: !91)
!1817 = !DIFile(filename: "C:/Xilinx/Vitis_HLS/2023.2/tps/mingw/8.3.0/win64.o/nt\5Cx86_64-w64-mingw32\5Cinclude\5Cwchar.h", directory: "C:\5CVitis_Libraries\5Cquantitative_finance\5CL1\5Ctests\5Cpca")
!1818 = !DIFile(filename: "C:/Xilinx/Vitis_HLS/2023.2/tps/mingw/8.3.0/win64.o/nt\5Clib\5Cgcc\5Cx86_64-w64-mingw32\5C8.3.0\5Cinclude\5Cc++\5Ccwchar", directory: "C:\5CVitis_Libraries\5Cquantitative_finance\5CL1\5Ctests\5Cpca")
!1819 = !DIImportedEntity(tag: DW_TAG_imported_declaration, scope: !34, entity: !1820, file: !1818, line: 139)
!1820 = !DIDerivedType(tag: DW_TAG_typedef, name: "wint_t", file: !1640, line: 106, baseType: !1821)
!1821 = !DIBasicType(name: "unsigned short", size: 16, encoding: DW_ATE_unsigned)
!1822 = !DIImportedEntity(tag: DW_TAG_imported_declaration, scope: !34, entity: !1823, file: !1818, line: 141)
!1823 = !DISubprogram(name: "btowc", scope: !1817, file: !1817, line: 1419, type: !1824, isLocal: false, isDefinition: false, flags: DIFlagPrototyped, isOptimized: false)
!1824 = !DISubroutineType(types: !1825)
!1825 = !{!1820, !91}
!1826 = !DIImportedEntity(tag: DW_TAG_imported_declaration, scope: !34, entity: !1827, file: !1818, line: 142)
!1827 = !DISubprogram(name: "fgetwc", scope: !1817, file: !1817, line: 771, type: !1828, isLocal: false, isDefinition: false, flags: DIFlagPrototyped, isOptimized: false)
!1828 = !DISubroutineType(types: !1829)
!1829 = !{!1820, !1830}
!1830 = !DIDerivedType(tag: DW_TAG_pointer_type, baseType: !1831, size: 64)
!1831 = !DIDerivedType(tag: DW_TAG_typedef, name: "FILE", file: !1817, line: 51, baseType: !1832)
!1832 = distinct !DICompositeType(tag: DW_TAG_structure_type, name: "_iobuf", file: !1817, line: 41, size: 384, align: 64, flags: DIFlagFwdDecl, identifier: "_ZTS6_iobuf")
!1833 = !DIImportedEntity(tag: DW_TAG_imported_declaration, scope: !34, entity: !1834, file: !1818, line: 143)
!1834 = !DISubprogram(name: "fgetws", scope: !1817, file: !1817, line: 780, type: !1835, isLocal: false, isDefinition: false, flags: DIFlagPrototyped, isOptimized: false)
!1835 = !DISubroutineType(types: !1836)
!1836 = !{!1685, !1684, !91, !1837}
!1837 = !DIDerivedType(tag: DW_TAG_restrict_type, baseType: !1830)
!1838 = !DIImportedEntity(tag: DW_TAG_imported_declaration, scope: !34, entity: !1839, file: !1818, line: 144)
!1839 = !DISubprogram(name: "fputwc", scope: !1817, file: !1817, line: 773, type: !1840, isLocal: false, isDefinition: false, flags: DIFlagPrototyped, isOptimized: false)
!1840 = !DISubroutineType(types: !1841)
!1841 = !{!1820, !1686, !1830}
!1842 = !DIImportedEntity(tag: DW_TAG_imported_declaration, scope: !34, entity: !1843, file: !1818, line: 145)
!1843 = !DISubprogram(name: "fputws", scope: !1817, file: !1817, line: 781, type: !1844, isLocal: false, isDefinition: false, flags: DIFlagPrototyped, isOptimized: false)
!1844 = !DISubroutineType(types: !1845)
!1845 = !{!91, !1726, !1837}
!1846 = !DIImportedEntity(tag: DW_TAG_imported_declaration, scope: !34, entity: !1847, file: !1818, line: 146)
!1847 = !DISubprogram(name: "fwide", scope: !1817, file: !1817, line: 1434, type: !1848, isLocal: false, isDefinition: false, flags: DIFlagPrototyped, isOptimized: false)
!1848 = !DISubroutineType(types: !1849)
!1849 = !{!91, !1830, !91}
!1850 = !DIImportedEntity(tag: DW_TAG_imported_declaration, scope: !34, entity: !1851, file: !1818, line: 147)
!1851 = !DISubprogram(name: "fwprintf", linkageName: "_ZL8fwprintfP6_iobufPKwz", scope: !1817, file: !1817, line: 585, type: !1852, isLocal: true, isDefinition: false, flags: DIFlagPrototyped, isOptimized: false)
!1852 = !DISubroutineType(types: !1853)
!1853 = !{!91, !1830, !1727, null}
!1854 = !DIImportedEntity(tag: DW_TAG_imported_declaration, scope: !34, entity: !1855, file: !1818, line: 148)
!1855 = !DISubprogram(name: "fwscanf", linkageName: "_ZL7fwscanfP6_iobufPKwz", scope: !1817, file: !1817, line: 549, type: !1852, isLocal: true, isDefinition: false, flags: DIFlagPrototyped, isOptimized: false)
!1856 = !DIImportedEntity(tag: DW_TAG_imported_declaration, scope: !34, entity: !1857, file: !1818, line: 149)
!1857 = !DISubprogram(name: "getwc", scope: !1817, file: !1817, line: 775, type: !1828, isLocal: false, isDefinition: false, flags: DIFlagPrototyped, isOptimized: false)
!1858 = !DIImportedEntity(tag: DW_TAG_imported_declaration, scope: !34, entity: !1859, file: !1818, line: 150)
!1859 = !DISubprogram(name: "getwchar", scope: !1817, file: !1817, line: 776, type: !1860, isLocal: false, isDefinition: false, flags: DIFlagPrototyped, isOptimized: false)
!1860 = !DISubroutineType(types: !1861)
!1861 = !{!1820}
!1862 = !DIImportedEntity(tag: DW_TAG_imported_declaration, scope: !34, entity: !1863, file: !1818, line: 151)
!1863 = !DISubprogram(name: "mbrlen", scope: !1817, file: !1817, line: 1420, type: !1864, isLocal: false, isDefinition: false, flags: DIFlagPrototyped, isOptimized: false)
!1864 = !DISubroutineType(types: !1865)
!1865 = !{!1639, !1687, !1639, !1866}
!1866 = !DIDerivedType(tag: DW_TAG_restrict_type, baseType: !1867)
!1867 = !DIDerivedType(tag: DW_TAG_pointer_type, baseType: !1816, size: 64)
!1868 = !DIImportedEntity(tag: DW_TAG_imported_declaration, scope: !34, entity: !1869, file: !1818, line: 152)
!1869 = !DISubprogram(name: "mbrtowc", scope: !1817, file: !1817, line: 1421, type: !1870, isLocal: false, isDefinition: false, flags: DIFlagPrototyped, isOptimized: false)
!1870 = !DISubroutineType(types: !1871)
!1871 = !{!1639, !1684, !1687, !1639, !1866}
!1872 = !DIImportedEntity(tag: DW_TAG_imported_declaration, scope: !34, entity: !1873, file: !1818, line: 153)
!1873 = !DISubprogram(name: "mbsinit", scope: !1817, file: !1817, line: 1435, type: !1874, isLocal: false, isDefinition: false, flags: DIFlagPrototyped, isOptimized: false)
!1874 = !DISubroutineType(types: !1875)
!1875 = !{!91, !1876}
!1876 = !DIDerivedType(tag: DW_TAG_pointer_type, baseType: !1877, size: 64)
!1877 = !DIDerivedType(tag: DW_TAG_const_type, baseType: !1816)
!1878 = !DIImportedEntity(tag: DW_TAG_imported_declaration, scope: !34, entity: !1879, file: !1818, line: 154)
!1879 = !DISubprogram(name: "mbsrtowcs", scope: !1817, file: !1817, line: 1422, type: !1880, isLocal: false, isDefinition: false, flags: DIFlagPrototyped, isOptimized: false)
!1880 = !DISubroutineType(types: !1881)
!1881 = !{!1639, !1684, !1882, !1639, !1866}
!1882 = !DIDerivedType(tag: DW_TAG_restrict_type, baseType: !1883)
!1883 = !DIDerivedType(tag: DW_TAG_pointer_type, baseType: !240, size: 64)
!1884 = !DIImportedEntity(tag: DW_TAG_imported_declaration, scope: !34, entity: !1885, file: !1818, line: 155)
!1885 = !DISubprogram(name: "putwc", scope: !1817, file: !1817, line: 777, type: !1840, isLocal: false, isDefinition: false, flags: DIFlagPrototyped, isOptimized: false)
!1886 = !DIImportedEntity(tag: DW_TAG_imported_declaration, scope: !34, entity: !1887, file: !1818, line: 156)
